
CH32V203C8T6.elf:     file format elf32-littleriscv
CH32V203C8T6.elf
architecture: riscv:rv32, flags 0x00000112:
EXEC_P, HAS_SYMS, D_PAGED
start address 0x00000000

Program Header:
    LOAD off    0x00001000 vaddr 0x00000000 paddr 0x00000000 align 2**12
         filesz 0x000051d0 memsz 0x000051d0 flags r-x
    LOAD off    0x00007000 vaddr 0x20000000 paddr 0x000051d0 align 2**12
         filesz 0x00000348 memsz 0x000013cc flags rw-
    LOAD off    0x00007800 vaddr 0x20004800 paddr 0x20004800 align 2**12
         filesz 0x00000000 memsz 0x00000800 flags rw-

Sections:
Idx Name          Size      VMA       LMA       File off  Algn
  0 .init         00000038  00000000  00000000  00001000  2**1
                  CONTENTS, ALLOC, LOAD, READONLY, CODE
  1 .vector       00000108  00000038  00000038  00001038  2**1
                  CONTENTS, ALLOC, LOAD, READONLY, CODE
  2 .text         00005090  00000140  00000140  00001140  2**2
                  CONTENTS, ALLOC, LOAD, READONLY, CODE
  3 .fini         00000000  000051d0  000051d0  00007348  2**0
                  CONTENTS, ALLOC, LOAD, CODE
  4 .dalign       00000000  20000000  20000000  00007348  2**0
                  CONTENTS
  5 .dlalign      00000000  000051d0  000051d0  00007348  2**0
                  CONTENTS
  6 .data         00000348  20000000  000051d0  00007000  2**2
                  CONTENTS, ALLOC, LOAD, DATA
  7 .bss          00001084  20000348  00005518  00007348  2**2
                  ALLOC
  8 .stack        00000800  20004800  20004800  00007800  2**0
                  ALLOC
  9 .debug_info   000265ab  00000000  00000000  00007348  2**0
                  CONTENTS, READONLY, DEBUGGING
 10 .debug_abbrev 00007138  00000000  00000000  0002d8f3  2**0
                  CONTENTS, READONLY, DEBUGGING
 11 .debug_aranges 00000dd0  00000000  00000000  00034a30  2**3
                  CONTENTS, READONLY, DEBUGGING
 12 .debug_ranges 00000f50  00000000  00000000  00035800  2**3
                  CONTENTS, READONLY, DEBUGGING
 13 .debug_line   000156bf  00000000  00000000  00036750  2**0
                  CONTENTS, READONLY, DEBUGGING
 14 .debug_str    00004343  00000000  00000000  0004be0f  2**0
                  CONTENTS, READONLY, DEBUGGING
 15 .comment      00000033  00000000  00000000  00050152  2**0
                  CONTENTS, READONLY
 16 .debug_frame  00001f58  00000000  00000000  00050188  2**2
                  CONTENTS, READONLY, DEBUGGING
 17 .debug_loc    00005b70  00000000  00000000  000520e0  2**0
                  CONTENTS, READONLY, DEBUGGING
SYMBOL TABLE:
00000000 l    d  .init	00000000 .init
00000038 l    d  .vector	00000000 .vector
00000140 l    d  .text	00000000 .text
000051d0 l    d  .fini	00000000 .fini
20000000 l    d  .dalign	00000000 .dalign
000051d0 l    d  .dlalign	00000000 .dlalign
20000000 l    d  .data	00000000 .data
20000348 l    d  .bss	00000000 .bss
20004800 l    d  .stack	00000000 .stack
00000000 l    d  .debug_info	00000000 .debug_info
00000000 l    d  .debug_abbrev	00000000 .debug_abbrev
00000000 l    d  .debug_aranges	00000000 .debug_aranges
00000000 l    d  .debug_ranges	00000000 .debug_ranges
00000000 l    d  .debug_line	00000000 .debug_line
00000000 l    d  .debug_str	00000000 .debug_str
00000000 l    d  .comment	00000000 .comment
00000000 l    d  .debug_frame	00000000 .debug_frame
00000000 l    d  .debug_loc	00000000 .debug_loc
00000000 l    df *ABS*	00000000 ./Startup/startup_ch32v20x_D6.o
00000038 l       .vector	00000000 _vector_base
00000000 l    df *ABS*	00000000 ch32v20x_it.c
00000000 l    df *ABS*	00000000 main.c
00000000 l    df *ABS*	00000000 system_ch32v20x.c
00000000 l    df *ABS*	00000000 ch32v20x_bkp.c
00000000 l    df *ABS*	00000000 ch32v20x_exti.c
00000000 l    df *ABS*	00000000 ch32v20x_flash.c
00000000 l    df *ABS*	00000000 ch32v20x_gpio.c
00000000 l    df *ABS*	00000000 ch32v20x_misc.c
00000000 l    df *ABS*	00000000 ch32v20x_pwr.c
00000000 l    df *ABS*	00000000 ch32v20x_rcc.c
20000000 l     O .data	00000010 APBAHBPrescTable
20000324 l     O .data	00000004 ADCPrescTable
00000000 l    df *ABS*	00000000 ch32v20x_usart.c
00000000 l    df *ABS*	00000000 BZZ.c
00000000 l    df *ABS*	00000000 LED.c
00000000 l    df *ABS*	00000000 Mode.c
00000000 l    df *ABS*	00000000 Time.c
00000000 l    df *ABS*	00000000 UART_Handle.c
00000000 l    df *ABS*	00000000 key.c
00000000 l    df *ABS*	00000000 Agreement_Hanlde.c
20000794 l     O .bss	00000020 temp_time.3307
00000000 l    df *ABS*	00000000 debug.c
00000000 l    df *ABS*	00000000 usb_core.c
00001bd4 l     F .text	000000d8 DataStageIn
00000000 l    df *ABS*	00000000 usb_init.c
00000000 l    df *ABS*	00000000 usb_int.c
00000000 l    df *ABS*	00000000 usb_mem.c
00000000 l    df *ABS*	00000000 usb_regs.c
00000000 l    df *ABS*	00000000 usb_sil.c
00000000 l    df *ABS*	00000000 hw_config.c
00000000 l    df *ABS*	00000000 usb_endp.c
20000354 l     O .bss	00000004 FrameCount.5627
00000000 l    df *ABS*	00000000 usb_istr.c
00000000 l    df *ABS*	00000000 usb_prop.c
00000000 l    df *ABS*	00000000 usb_pwr.c
00000000 l    df *ABS*	00000000 Exist_GPIO.c
00000000 l    df *ABS*	00000000 Flash.c
00000000 l    df *ABS*	00000000 Sys_Time.c
00000000 l    df *ABS*	00000000 uart.c
00004ebc l     O .text	0000000c CSWTCH.4
00004ebc l     O .text	0000000c CSWTCH.5
00004ebc l     O .text	0000000c CSWTCH.6
00004ebc l     O .text	0000000c CSWTCH.3
00000000 l    df *ABS*	00000000 API.c
00000000 l    df *ABS*	00000000 Check_CRC16.c
00004ec8 l     O .text	00000200 CRC_CCITT_table
00000000 l    df *ABS*	00000000 DATA_Handle.c
00000000 l    df *ABS*	00000000 Time_Handle.c
00000000 l    df *ABS*	00000000 wchprintf.c
00000000 l    df *ABS*	00000000 libgcc2.c
00000000 l    df *ABS*	00000000 libgcc2.c
00000000 l    df *ABS*	00000000 memcpy.c
00000000 l    df *ABS*	00000000 strlen.c
00000000 l    df *ABS*	00000000 usb_desc.c
00000000 l    df *ABS*	00000000 libgcc2.c
00003f9c  w    F .text	00000004 printDouble
00002978 g     F .text	00000042 SetEPRxValid
20000f7e g     O .bss	00000002 SaveRState
00003bb4 g     F .text	0000001e CRC16_CCITT_CalateByte
000009be  w      .text	00000000 EXTI2_IRQHandler
00002b2c g     F .text	00000022 GetEPRxCount
20000374 g     O .bss	00000004 remotewakeupon
00002d5a g     F .text	00000020 SOF_Callback
00003784 g     F .text	0000000a SysTick_Reload
00001232 g     F .text	00000020 LED_REG
00003fa0  w    F .text	00000322 print
00001e76 g     F .text	000000c4 Standard_SetEndPointFeature
00002f66 g     F .text	00000040 USBD_HID_Data_Updata
000024ac g     F .text	0000002c USB_Init
000042c2  w    F .text	00000024 printf
20000b20 g       .data	00000000 __global_pointer$
000009e4  w      .text	00000000 TIM1_CC_IRQHandler
00002b4e g     F .text	0000000e ByteSwap
000001ec g     F .text	00000002 HardFault_Handler
00003254 g     F .text	00000022 USBD_GetReportDescriptor
00003aea g     F .text	00000022 UART_RXD_Flag_Clear
00003ea6  w    F .text	000000f2 printInt
00001550 g     F .text	000000d4 Send_Agreement
20000834 g     O .bss	00000014 HID_Data
00002a88 g     F .text	0000001e GetEPTxAddr
000009aa  w      .text	00000000 SysTick_Handler
00000d08 g     F .text	000000b8 NVIC_Init
20000848 g     O .bss	00000230 USB_Pack
000009b0  w      .text	00000000 PVD_IRQHandler
00002fd0 g     F .text	00000002 USBD_Status_In
000001e8 g     F .text	00000004 NMI_Handler
000009c0  w      .text	00000000 EXTI3_IRQHandler
00002ac6 g     F .text	0000001e SetEPTxCount
00002bd6 g     F .text	00000008 Enter_LowPowerMode
20000f4c g     O .bss	00000002 SaveState
000009ac  w      .text	00000000 SW_handler
0000361e g     F .text	0000013e Save_Flash
00000bb6 g     F .text	00000064 FLASH_ProgramPage_Fast
20000330 g     O .data	00000008 Device_Descriptor
000010e6 g     F .text	0000000c USART_GetFlagStatus
20000348 g       .bss	00000000 _sbss
00000800 g       *ABS*	00000000 __stack_size
0000289a g     F .text	00000048 SetEPTxStatus
2000027c g     O .data	0000001c pEpInt_OUT
00001f3a g     F .text	00000024 Standard_SetDeviceFeature
20000350 g     O .bss	00000001 Endp1Busy
00004dfc g     O .text	00000012 USBD_DeviceDescriptor
00004a88 g     F .text	000000b6 memcpy
20000364 g     O .bss	00000008 HIDReportOut
00002bf0 g     F .text	0000004e USB_Interrupts_Config
00002d06 g     F .text	00000002 EP1_OUT_Callback
00003f98  w    F .text	00000004 printLongLongInt
00001d42 g     F .text	00000134 Standard_ClearFeature
000009ba  w      .text	00000000 EXTI0_IRQHandler
00002b7c g     F .text	00000030 USB_SIL_Read
000009f0  w      .text	00000000 I2C2_EV_IRQHandler
00004e10 g     O .text	00000022 USBD_HIDRepDesc
0000430e g     F .text	00000054 puts
0000115e g     F .text	00000016 BZZ_SET
20000320 g     O .data	00000004 SystemCoreClock
20000360 g     O .bss	00000004 wCNTR
000010dc g     F .text	0000000a USART_ReceiveData
00001fb4 g     F .text	0000034c Setup0_Process
200007b4 g     O .bss	00000040 HIDRxBuffer
00000038 g       .init	00000000 _einit
00004e34 g     O .text	0000003e USBD_KeyRepDesc
00003c60 g     F .text	0000005e Seconds_to_Hourly
00002d00 g     F .text	00000006 EP2_IN_Callback
00000b68 g     F .text	0000001e FLASH_Unlock_Fast
00000eb6 g     F .text	0000001e RCC_APB2PeriphClockCmd
000009d2  w      .text	00000000 ADC1_2_IRQHandler
0000378e g     F .text	0000008e SYS_Delay_us
000029ba g     F .text	00000026 ClearEP_KIND
00000c1a g     F .text	000000d4 GPIO_Init
000009a8  w      .text	00000000 Break_Point_Handler
00003cbe g     F .text	000000c4 Over_Time
20000348 g     O .bss	00000004 NVIC_Priority_Group
000009f4  w      .text	00000000 SPI1_IRQHandler
00001080 g     F .text	0000001c USART_Cmd
2000138a g     O .bss	00000002 wIstr
000009b2  w      .text	00000000 TAMPER_IRQHandler
00001174 g     F .text	00000004 LED_Init
20000f50 g     O .bss	00000004 pProperty
0000381c g     F .text	0000008a SYS_Delay_ms
00001cac g     F .text	00000038 Standard_SetConfiguration
20000378 g     O .bss	00000004 SaveStatus
20000a78 g     O .bss	00000230 Send_DATA
20000254 g     O .data	0000000c USBD_StringSerial
00000ed4 g     F .text	0000001e RCC_APB1PeriphClockCmd
000009a4  w      .text	00000000 Ecall_M_Mode_Handler
2000036c g     O .bss	00000004 WakeUpEnFlag
20004800 g       .stack	00000000 _heap_end
00002bbe g     F .text	00000018 Set_USBConfig
2000035c g     O .bss	00000004 esof_counter
20000260 g     O .data	0000001c pEpInt_IN
000046fa g     F .text	0000038e .hidden __umoddi3
00001258 g     F .text	000000c0 Mode_Index
00003232 g     F .text	00000022 USBD_GetStringDescriptor
00002fa6 g     F .text	00000006 HID_SaveReportOut
00004362 g     F .text	00000398 .hidden __udivdi3
000009ca  w      .text	00000000 DMA1_Channel4_IRQHandler
20000f54 g     O .bss	00000001 EPindex
20000298 g     O .data	00000030 Device_Property
00001b30 g     F .text	000000a4 Standard_GetStatus
00000b32 g     F .text	0000000e FLASH_Lock
20000024 g     O .data	00000230 Norm
200013b4 g     O .bss	00000004 EraseStatus
200002d8 g     O .data	00000020 String_Descriptor
000032e8 g     F .text	00000002 USBD_Status_Out
000029e2 g     F .text	00000034 ClearDTOG_RX
000009fc  w      .text	00000000 USART3_IRQHandler
00002fe6 g     F .text	00000048 USBD_init
00000b28 g     F .text	0000000a EXTI_ClearITPendingBit
0000133c g     F .text	00000080 Get_TIME
00000a9a g     F .text	00000024 BKP_TamperPinCmd
00000dc0 g     F .text	00000016 PWR_BackupAccessCmd
000009b4  w      .text	00000000 RTC_IRQHandler
200013cc g       .bss	00000000 _ebss
000024aa g     F .text	00000002 NOP_Process
00001100 g     F .text	00000044 USART_GetITStatus
00004e90 g     O .text	0000000a USBD_StringVendor
000009d0  w      .text	00000000 DMA1_Channel7_IRQHandler
000009d8  w      .text	00000000 CAN1_RX1_IRQHandler
00001ce4 g     F .text	0000005e Standard_SetInterface
00002ae4 g     F .text	00000048 SetEPRxCount
00002fd2 g     F .text	00000010 USBD_Get_Interface_Setting
00002b5c g     F .text	00000020 USB_SIL_Init
000032ea g     F .text	0000002a PowerOn
000009ea  w      .text	00000000 TIM4_IRQHandler
000024d8 g     F .text	0000034c CTR_LP
20000ca8 g     O .bss	00000004 led
000009ec  w      .text	00000000 I2C1_EV_IRQHandler
20000f80 g     O .bss	00000002 SaveTState
00004db8 g     O .text	00000042 USBD_ConfigDescriptor
0000286a g     F .text	00000010 SetBTABLE
00000a04  w      .text	00000000 USBHD_IRQHandler
00003c08 g     F .text	0000001c Find_Data
00000df0 g     F .text	000000c6 RCC_GetClocksFreq
200002c8 g     O .data	00000010 Report_Descriptor
200002f8 g     O .data	00000024 User_Standard_Requests
000009ce  w      .text	00000000 DMA1_Channel6_IRQHandler
00000a08  w      .text	00000000 UART4_IRQHandler
2000033c g     O .data	00000004 fSuspendEnabled
00000fa8 g     F .text	000000d8 USART_Init
00003314 g     F .text	000000b6 Suspend
000009e8  w      .text	00000000 TIM3_IRQHandler
000009b8  w      .text	00000000 RCC_IRQHandler
00002c3e g     F .text	000000bc USB_Port_Set
20000f58 g     O .bss	0000001c Device_Info
0000302e g     F .text	000001f4 USBD_Reset
000009e2  w      .text	00000000 TIM1_TRG_COM_IRQHandler
000009c4  w      .text	00000000 DMA1_Channel1_IRQHandler
00003b2c g     F .text	0000004a UART_TXD_Send
00001adc g     F .text	0000002a Standard_GetConfiguration
00000000 g       .init	00000000 _start
00000b48 g     F .text	00000020 FLASH_GetStatus
0000152e g     F .text	0000000e KEY_Init
00000b40 g     F .text	00000008 FLASH_ClearFlag
00002fac g     F .text	0000000e USBD_SetConfiguration
20000f74 g     O .bss	00000004 pUser_Standard_Requests
00003dce  w    F .text	000000d8 prints
200013b8 g     O .bss	00000014 API
20000010 g     O .data	00000014 SYS_Time
2000037c g     O .bss	00000418 Data
000009fe  w      .text	00000000 EXTI15_10_IRQHandler
20000ef8 g     O .bss	00000018 Mode_Init
00001178 g     F .text	00000034 LED_SET
0000109c g     F .text	00000036 USART_ITConfig
0000322a g     F .text	00000008 USBD_GetConfigDescriptor
00000abe g     F .text	0000006a EXTI_Init
00002fe2 g     F .text	00000004 USBD_NoData_Setup
000023f4 g     F .text	0000004a SetDeviceAddress
00000a0a  w      .text	00000000 DMA1_Channel8_IRQHandler
0000284c g     F .text	0000001e PMAToUserBufferCopy
0000131c g     F .text	00000020 Set_TIME
00001318 g     F .text	00000004 Time_Init
000035d2 g     F .text	0000004c KEY_GPIO_Init
20000cac g     O .bss	00000230 UART_Pack
00002a66 g     F .text	00000022 SetEPRxAddr
00001252 g     F .text	00000006 Debug_Out
20000358 g     O .bss	00000001 bIntPackSOF
00000b88 g     F .text	0000002e FLASH_ErasePage_Fast
20000000 g       .dalign	00000000 _data_vma
0000375c g     F .text	00000028 Sys_Time_Init
0000243e g     F .text	0000006c In0_Process
000033ca g     F .text	00000032 Resume_Init
000009dc  w      .text	00000000 EXTI9_5_IRQHandler
20000f48 g     O .bss	00000002 StatusInfo
20000f44 g     O .bss	00000004 CV_UART
20000f78 g     O .bss	00000004 pInformation
00000f2e g     F .text	0000007a USART_DeInit
0000287a g     F .text	00000020 SetEPType
00002fc2 g     F .text	00000008 USBD_SetDeviceFeature
2000138c g     O .bss	00000008 ResumeS
000009f6  w      .text	00000000 SPI2_IRQHandler
00000140 g     F .text	000000a8 memset
00000430 g     F .text	000004cc main
00001624 g     F .text	00000468 Pick_Agreement
00001b06 g     F .text	0000002a Standard_GetInterface
00003c24 g     F .text	0000003c Hourly_to_Seconds
00003bd2 g     F .text	00000036 CRC16_CCITT_CalculateBuf
000009cc  w      .text	00000000 DMA1_Channel5_IRQHandler
00000dd6 g     F .text	0000001a RCC_USBCLKConfig
000009c2  w      .text	00000000 EXTI4_IRQHandler
00002bb8 g     F .text	00000006 USB_LP_CAN1_RX0_IRQHandler
000010f2 g     F .text	0000000e USART_ClearFlag
000008fc g     F .text	000000a4 SystemInit
20000f10 g     O .bss	00000034 Mode_User
00003d82  w    F .text	0000004c printchar
000013fc g     F .text	00000024 Uart_Init
000014c8 g     F .text	00000048 UART_Send_Data
000009d4  w      .text	00000000 USB_HP_CAN1_TX_IRQHandler
000042e6 g     F .text	00000028 sprintf
000050d0 g     O .text	00000100 .hidden __clz_tab
00000000 g       .init	00000000 _sinit
20000edc g     O .bss	00000004 usb
00000a06  w      .text	00000000 USBHDWakeUp_IRQHandler
000009c8  w      .text	00000000 DMA1_Channel3_IRQHandler
000039ce g     F .text	000000ea Uart2_Init
000009e0  w      .text	00000000 TIM1_UP_IRQHandler
00001f5e g     F .text	0000001e Standard_GetDescriptorData
00003b0c g     F .text	00000020 UART_RXD_Receive
00002fca g     F .text	00000006 USBD_ClearFeature
00002300 g     F .text	000000f4 Out0_Process
000009ae  w      .text	00000000 WWDG_IRQHandler
000034e4 g     F .text	000000a8 LED_GPIO_Init
00000f10 g     F .text	0000001e RCC_APB1PeriphResetCmd
000009a6  w      .text	00000000 Ecall_U_Mode_Handler
00002cfa g     F .text	00000006 EP1_IN_Callback
00002bde g     F .text	00000012 Leave_LowPowerMode
00003b76 g     F .text	0000003e API_Index
000009e6  w      .text	00000000 TIM2_IRQHandler
00002938 g     F .text	00000040 SetEPTxValid
20005000 g       .stack	00000000 _eusrstack
00000b86 g     F .text	00000002 FLASH_Lock_Fast
000009de  w      .text	00000000 TIM1_BRK_IRQHandler
000010d2 g     F .text	0000000a USART_SendData
0000358c g     F .text	00000046 BZZ_GPIO_Init
00002d08 g     F .text	00000052 EP2_OUT_Callback
000009bc  w      .text	00000000 EXTI1_IRQHandler
00002fba g     F .text	00000008 USBD_SetDeviceAddress
20000340 g     O .data	00000004 USBD_StringLangID
00001a8c g     F .text	00000050 _write
2000034c g     O .bss	00000004 Data_Mul_MaxPacketSize
20000348 g       .data	00000000 _edata
200013cc g       .bss	00000000 _end
000038da g     F .text	000000f4 Uart1_Init
00001f7c g     F .text	00000038 Post0_Process
00000a00  w      .text	00000000 RTCAlarm_IRQHandler
00002d7a g     F .text	000001ec USB_Istr
000028e2 g     F .text	00000056 SetEPRxStatus
000051d0 g       .dlalign	00000000 _data_lma
200007f4 g     O .bss	00000040 HIDTxBuffer
000038a6 g     F .text	00000034 SYS_Delay_S
00001474 g     F .text	00000054 USART2_IRQHandler
00003ab8 g     F .text	00000032 UART_RXD_Flag
00002a16 g     F .text	00000030 ClearDTOG_TX
20001394 g     O .bss	00000020 EP
00002a46 g     F .text	00000020 SetEPTxAddr
000009f2  w      .text	00000000 I2C2_ER_IRQHandler
000009c6  w      .text	00000000 DMA1_Channel2_IRQHandler
0000153c g     F .text	00000014 KEY_State
00004e74 g     O .text	0000001a USBD_StringProduct
00000a0c  w      .text	00000000 handle_reset
20000328 g     O .data	00000008 Config_Descriptor
000029e0 g     F .text	00000002 Clear_Status_Out
000009da  w      .text	00000000 CAN1_SCE_IRQHandler
00001144 g     F .text	0000001a BZZ_Init
00003222 g     F .text	00000008 USBD_GetDeviceDescriptor
20000f84 g     O .bss	00000406 HID_Data_Buff
000009b6  w      .text	00000000 FLASH_IRQHandler
20000ee0 g     O .bss	00000018 Fun
00000290 g     F .text	000001a0 Main_Init
20000351 g     O .bss	00000001 Endp2Busy
00002824 g     F .text	00000028 UserToPMABufferCopy
00001420 g     F .text	00000054 USART1_IRQHandler
00004b3e g     F .text	00000012 strlen
00001510 g     F .text	0000001e UART_Send_String
00000ef2 g     F .text	0000001e RCC_APB2PeriphResetCmd
000009ee  w      .text	00000000 I2C1_ER_IRQHandler
00000d02 g     F .text	00000006 NVIC_PriorityGroupConfig
20000370 g     O .bss	00000004 bDeviceState
000033fc g     F .text	000000e8 Resume
20000338 g     O .data	00000002 Device_Table
000011ac g     F .text	00000016 WS2812_Delay
000011c2 g     F .text	00000070 WS2812_write_byte
00003276 g     F .text	00000072 USBD_Data_Setup
00000cee g     F .text	00000014 GPIO_ReadInputDataBit
000001ee g     F .text	000000a2 Send_Data
20000f7c g     O .bss	00000002 wInterrupt_Mask
000013bc g     F .text	00000040 Get_Lose_Tiem
00002aa6 g     F .text	00000020 GetEPRxAddr
00002bac g     F .text	0000000c USBWakeUp_IRQHandler



Disassembly of section .init:

00000000 <_sinit>:
   0:	20d0006f          	j	a0c <handle_reset>
   4:	00000013          	nop
   8:	00000013          	nop
   c:	00000013          	nop
  10:	00000013          	nop
  14:	00000013          	nop
  18:	00000013          	nop
  1c:	00000013          	nop
  20:	00000013          	nop
  24:	00000013          	nop
  28:	00000013          	nop
  2c:	00000013          	nop
  30:	00000013          	nop
  34:	00100073          	ebreak

Disassembly of section .vector:

00000038 <_vector_base>:
	...
  40:	01e8                	addi	a0,sp,204
  42:	0000                	unimp
  44:	01ec                	addi	a1,sp,204
  46:	0000                	unimp
  48:	0000                	unimp
  4a:	0000                	unimp
  4c:	09a4                	addi	s1,sp,216
	...
  56:	0000                	unimp
  58:	09a6                	slli	s3,s3,0x9
  5a:	0000                	unimp
  5c:	09a8                	addi	a0,sp,216
	...
  66:	0000                	unimp
  68:	09aa                	slli	s3,s3,0xa
  6a:	0000                	unimp
  6c:	0000                	unimp
  6e:	0000                	unimp
  70:	09ac                	addi	a1,sp,216
  72:	0000                	unimp
  74:	0000                	unimp
  76:	0000                	unimp
  78:	09ae                	slli	s3,s3,0xb
  7a:	0000                	unimp
  7c:	09b0                	addi	a2,sp,216
  7e:	0000                	unimp
  80:	09b2                	slli	s3,s3,0xc
  82:	0000                	unimp
  84:	09b4                	addi	a3,sp,216
  86:	0000                	unimp
  88:	09b6                	slli	s3,s3,0xd
  8a:	0000                	unimp
  8c:	09b8                	addi	a4,sp,216
  8e:	0000                	unimp
  90:	09ba                	slli	s3,s3,0xe
  92:	0000                	unimp
  94:	09bc                	addi	a5,sp,216
  96:	0000                	unimp
  98:	09be                	slli	s3,s3,0xf
  9a:	0000                	unimp
  9c:	09c0                	addi	s0,sp,212
  9e:	0000                	unimp
  a0:	09c2                	slli	s3,s3,0x10
  a2:	0000                	unimp
  a4:	09c4                	addi	s1,sp,212
  a6:	0000                	unimp
  a8:	09c6                	slli	s3,s3,0x11
  aa:	0000                	unimp
  ac:	09c8                	addi	a0,sp,212
  ae:	0000                	unimp
  b0:	09ca                	slli	s3,s3,0x12
  b2:	0000                	unimp
  b4:	09cc                	addi	a1,sp,212
  b6:	0000                	unimp
  b8:	09ce                	slli	s3,s3,0x13
  ba:	0000                	unimp
  bc:	09d0                	addi	a2,sp,212
  be:	0000                	unimp
  c0:	09d2                	slli	s3,s3,0x14
  c2:	0000                	unimp
  c4:	09d4                	addi	a3,sp,212
  c6:	0000                	unimp
  c8:	2bb8                	fld	fa4,80(a5)
  ca:	0000                	unimp
  cc:	09d8                	addi	a4,sp,212
  ce:	0000                	unimp
  d0:	09da                	slli	s3,s3,0x16
  d2:	0000                	unimp
  d4:	09dc                	addi	a5,sp,212
  d6:	0000                	unimp
  d8:	09de                	slli	s3,s3,0x17
  da:	0000                	unimp
  dc:	09e0                	addi	s0,sp,220
  de:	0000                	unimp
  e0:	09e2                	slli	s3,s3,0x18
  e2:	0000                	unimp
  e4:	09e4                	addi	s1,sp,220
  e6:	0000                	unimp
  e8:	09e6                	slli	s3,s3,0x19
  ea:	0000                	unimp
  ec:	09e8                	addi	a0,sp,220
  ee:	0000                	unimp
  f0:	09ea                	slli	s3,s3,0x1a
  f2:	0000                	unimp
  f4:	09ec                	addi	a1,sp,220
  f6:	0000                	unimp
  f8:	09ee                	slli	s3,s3,0x1b
  fa:	0000                	unimp
  fc:	09f0                	addi	a2,sp,220
  fe:	0000                	unimp
 100:	09f2                	slli	s3,s3,0x1c
 102:	0000                	unimp
 104:	09f4                	addi	a3,sp,220
 106:	0000                	unimp
 108:	09f6                	slli	s3,s3,0x1d
 10a:	0000                	unimp
 10c:	1420                	addi	s0,sp,552
 10e:	0000                	unimp
 110:	1474                	addi	a3,sp,556
 112:	0000                	unimp
 114:	09fc                	addi	a5,sp,220
 116:	0000                	unimp
 118:	09fe                	slli	s3,s3,0x1f
 11a:	0000                	unimp
 11c:	0a00                	addi	s0,sp,272
 11e:	0000                	unimp
 120:	2bac                	fld	fa1,80(a5)
 122:	0000                	unimp
 124:	0a04                	addi	s1,sp,272
 126:	0000                	unimp
 128:	0a06                	slli	s4,s4,0x1
 12a:	0000                	unimp
 12c:	0a08                	addi	a0,sp,272
 12e:	0000                	unimp
 130:	0a0a                	slli	s4,s4,0x2
	...

Disassembly of section .text:

00000140 <memset>:
     140:	433d                	li	t1,15
     142:	872a                	mv	a4,a0
     144:	02c37363          	bgeu	t1,a2,16a <memset+0x2a>
     148:	00f77793          	andi	a5,a4,15
     14c:	efbd                	bnez	a5,1ca <memset+0x8a>
     14e:	e5ad                	bnez	a1,1b8 <memset+0x78>
     150:	ff067693          	andi	a3,a2,-16
     154:	8a3d                	andi	a2,a2,15
     156:	96ba                	add	a3,a3,a4
     158:	c30c                	sw	a1,0(a4)
     15a:	c34c                	sw	a1,4(a4)
     15c:	c70c                	sw	a1,8(a4)
     15e:	c74c                	sw	a1,12(a4)
     160:	0741                	addi	a4,a4,16
     162:	fed76be3          	bltu	a4,a3,158 <memset+0x18>
     166:	e211                	bnez	a2,16a <memset+0x2a>
     168:	8082                	ret
     16a:	40c306b3          	sub	a3,t1,a2
     16e:	068a                	slli	a3,a3,0x2
     170:	00000297          	auipc	t0,0x0
     174:	9696                	add	a3,a3,t0
     176:	00a68067          	jr	10(a3)
     17a:	00b70723          	sb	a1,14(a4)
     17e:	00b706a3          	sb	a1,13(a4)
     182:	00b70623          	sb	a1,12(a4)
     186:	00b705a3          	sb	a1,11(a4)
     18a:	00b70523          	sb	a1,10(a4)
     18e:	00b704a3          	sb	a1,9(a4)
     192:	00b70423          	sb	a1,8(a4)
     196:	00b703a3          	sb	a1,7(a4)
     19a:	00b70323          	sb	a1,6(a4)
     19e:	00b702a3          	sb	a1,5(a4)
     1a2:	00b70223          	sb	a1,4(a4)
     1a6:	00b701a3          	sb	a1,3(a4)
     1aa:	00b70123          	sb	a1,2(a4)
     1ae:	00b700a3          	sb	a1,1(a4)
     1b2:	00b70023          	sb	a1,0(a4)
     1b6:	8082                	ret
     1b8:	0ff5f593          	andi	a1,a1,255
     1bc:	00859693          	slli	a3,a1,0x8
     1c0:	8dd5                	or	a1,a1,a3
     1c2:	01059693          	slli	a3,a1,0x10
     1c6:	8dd5                	or	a1,a1,a3
     1c8:	b761                	j	150 <memset+0x10>
     1ca:	00279693          	slli	a3,a5,0x2
     1ce:	00000297          	auipc	t0,0x0
     1d2:	9696                	add	a3,a3,t0
     1d4:	8286                	mv	t0,ra
     1d6:	fa8680e7          	jalr	-88(a3)
     1da:	8096                	mv	ra,t0
     1dc:	17c1                	addi	a5,a5,-16
     1de:	8f1d                	sub	a4,a4,a5
     1e0:	963e                	add	a2,a2,a5
     1e2:	f8c374e3          	bgeu	t1,a2,16a <memset+0x2a>
     1e6:	b7a5                	j	14e <memset+0xe>

000001e8 <NMI_Handler>:
     1e8:	30200073          	mret

000001ec <HardFault_Handler>:
     1ec:	a001                	j	1ec <HardFault_Handler>

000001ee <Send_Data>:
     1ee:	f421c783          	lbu	a5,-190(gp) # 20000a62 <USB_Pack+0x21a>
     1f2:	7179                	addi	sp,sp,-48
     1f4:	d606                	sw	ra,44(sp)
     1f6:	d422                	sw	s0,40(sp)
     1f8:	d226                	sw	s1,36(sp)
     1fa:	d04a                	sw	s2,32(sp)
     1fc:	ce4e                	sw	s3,28(sp)
     1fe:	862e                	mv	a2,a1
     200:	cbb1                	beqz	a5,254 <Send_Data+0x66>
     202:	4481                	li	s1,0
     204:	cd418413          	addi	s0,gp,-812 # 200007f4 <HIDTxBuffer>
     208:	04000913          	li	s2,64
     20c:	03f00993          	li	s3,63
     210:	4781                	li	a5,0
     212:	00878733          	add	a4,a5,s0
     216:	00070023          	sb	zero,0(a4)
     21a:	0785                	addi	a5,a5,1
     21c:	ff279be3          	bne	a5,s2,212 <Send_Data+0x24>
     220:	4781                	li	a5,0
     222:	06c9d363          	bge	s3,a2,288 <Send_Data+0x9a>
     226:	00f48733          	add	a4,s1,a5
     22a:	972a                	add	a4,a4,a0
     22c:	00074683          	lbu	a3,0(a4)
     230:	00f40733          	add	a4,s0,a5
     234:	0785                	addi	a5,a5,1
     236:	00d70023          	sb	a3,0(a4)
     23a:	ff2796e3          	bne	a5,s2,226 <Send_Data+0x38>
     23e:	fc060613          	addi	a2,a2,-64
     242:	04048493          	addi	s1,s1,64
     246:	c632                	sw	a2,12(sp)
     248:	c42a                	sw	a0,8(sp)
     24a:	51d020ef          	jal	ra,2f66 <USBD_HID_Data_Updata>
     24e:	4632                	lw	a2,12(sp)
     250:	4522                	lw	a0,8(sp)
     252:	fe5d                	bnez	a2,210 <Send_Data+0x22>
     254:	3a61c783          	lbu	a5,934(gp) # 20000ec6 <UART_Pack+0x21a>
     258:	c791                	beqz	a5,264 <Send_Data+0x76>
     25a:	4101a783          	lw	a5,1040(gp) # 20000f30 <Mode_User+0x20>
     25e:	85aa                	mv	a1,a0
     260:	4505                	li	a0,1
     262:	9782                	jalr	a5
     264:	50b2                	lw	ra,44(sp)
     266:	5422                	lw	s0,40(sp)
     268:	5492                	lw	s1,36(sp)
     26a:	5902                	lw	s2,32(sp)
     26c:	49f2                	lw	s3,28(sp)
     26e:	4501                	li	a0,0
     270:	6145                	addi	sp,sp,48
     272:	8082                	ret
     274:	00f48733          	add	a4,s1,a5
     278:	972a                	add	a4,a4,a0
     27a:	00074683          	lbu	a3,0(a4)
     27e:	00f40733          	add	a4,s0,a5
     282:	0785                	addi	a5,a5,1
     284:	00d70023          	sb	a3,0(a4)
     288:	fec7c6e3          	blt	a5,a2,274 <Send_Data+0x86>
     28c:	4601                	li	a2,0
     28e:	bf65                	j	246 <Send_Data+0x58>

00000290 <Main_Init>:
     290:	1101                	addi	sp,sp,-32
     292:	4509                	li	a0,2
     294:	c84a                	sw	s2,16(sp)
     296:	ce06                	sw	ra,28(sp)
     298:	3d818913          	addi	s2,gp,984 # 20000ef8 <Mode_Init>
     29c:	cc22                	sw	s0,24(sp)
     29e:	ca26                	sw	s1,20(sp)
     2a0:	c64e                	sw	s3,12(sp)
     2a2:	c452                	sw	s4,8(sp)
     2a4:	25f000ef          	jal	ra,d02 <NVIC_PriorityGroupConfig>
     2a8:	7b1000ef          	jal	ra,1258 <Mode_Index>
     2ac:	0cb030ef          	jal	ra,3b76 <API_Index>
     2b0:	00892783          	lw	a5,8(s2)
     2b4:	65f1                	lui	a1,0x1c
     2b6:	4605                	li	a2,1
     2b8:	20058593          	addi	a1,a1,512 # 1c200 <_data_lma+0x17030>
     2bc:	4505                	li	a0,1
     2be:	9782                	jalr	a5
     2c0:	00492783          	lw	a5,4(s2)
     2c4:	4505                	li	a0,1
     2c6:	9782                	jalr	a5
     2c8:	00c92783          	lw	a5,12(s2)
     2cc:	4505                	li	a0,1
     2ce:	3f018493          	addi	s1,gp,1008 # 20000f10 <Mode_User>
     2d2:	9782                	jalr	a5
     2d4:	01092783          	lw	a5,16(s2)
     2d8:	4505                	li	a0,1
     2da:	08006437          	lui	s0,0x8006
     2de:	9782                	jalr	a5
     2e0:	50dc                	lw	a5,36(s1)
     2e2:	4585                	li	a1,1
     2e4:	4505                	li	a0,1
     2e6:	9782                	jalr	a5
     2e8:	50dc                	lw	a5,36(s1)
     2ea:	4581                	li	a1,0
     2ec:	4509                	li	a0,2
     2ee:	9782                	jalr	a5
     2f0:	54dc                	lw	a5,44(s1)
     2f2:	4501                	li	a0,0
     2f4:	9782                	jalr	a5
     2f6:	4cdc                	lw	a5,28(s1)
     2f8:	000055b7          	lui	a1,0x5
     2fc:	bd058593          	addi	a1,a1,-1072 # 4bd0 <strlen+0x92>
     300:	4505                	li	a0,1
     302:	9782                	jalr	a5
     304:	f0045583          	lhu	a1,-256(s0) # 8005f00 <_data_lma+0x8000d30>
     308:	00005537          	lui	a0,0x5
     30c:	be450513          	addi	a0,a0,-1052 # 4be4 <strlen+0xa6>
     310:	7b3030ef          	jal	ra,42c2 <printf>
     314:	f0045703          	lhu	a4,-256(s0)
     318:	6799                	lui	a5,0x6
     31a:	a0178793          	addi	a5,a5,-1535 # 5a01 <_data_lma+0x831>
     31e:	08e79263          	bne	a5,a4,3a2 <Main_Init+0x112>
     322:	f0445983          	lhu	s3,-252(s0)
     326:	f0645783          	lhu	a5,-250(s0)
     32a:	00005537          	lui	a0,0x5
     32e:	09c2                	slli	s3,s3,0x10
     330:	99be                	add	s3,s3,a5
     332:	85ce                	mv	a1,s3
     334:	bfc50513          	addi	a0,a0,-1028 # 4bfc <strlen+0xbe>
     338:	78b030ef          	jal	ra,42c2 <printf>
     33c:	00045603          	lhu	a2,0(s0)
     340:	00005a37          	lui	s4,0x5
     344:	080065b7          	lui	a1,0x8006
     348:	c18a0513          	addi	a0,s4,-1000 # 4c18 <strlen+0xda>
     34c:	777030ef          	jal	ra,42c2 <printf>
     350:	00c45603          	lhu	a2,12(s0)
     354:	00c40593          	addi	a1,s0,12
     358:	c18a0513          	addi	a0,s4,-1000
     35c:	767030ef          	jal	ra,42c2 <printf>
     360:	008987b3          	add	a5,s3,s0
     364:	0007c603          	lbu	a2,0(a5)
     368:	00240593          	addi	a1,s0,2
     36c:	95ce                	add	a1,a1,s3
     36e:	c18a0513          	addi	a0,s4,-1000
     372:	751030ef          	jal	ra,42c2 <printf>
     376:	4cdc                	lw	a5,28(s1)
     378:	000055b7          	lui	a1,0x5
     37c:	c3c58593          	addi	a1,a1,-964 # 4c3c <strlen+0xfe>
     380:	4505                	li	a0,1
     382:	9782                	jalr	a5
     384:	50dc                	lw	a5,36(s1)
     386:	4581                	li	a1,0
     388:	4505                	li	a0,1
     38a:	9782                	jalr	a5
     38c:	50dc                	lw	a5,36(s1)
     38e:	4585                	li	a1,1
     390:	4509                	li	a0,2
     392:	9782                	jalr	a5
     394:	00492783          	lw	a5,4(s2)
     398:	4501                	li	a0,0
     39a:	9782                	jalr	a5
     39c:	6819                	lui	a6,0x6
     39e:	8802                	jr	a6
     3a0:	a001                	j	3a0 <Main_Init+0x110>
     3a2:	01d020ef          	jal	ra,2bbe <Set_USBConfig>
     3a6:	106020ef          	jal	ra,24ac <USB_Init>
     3aa:	4581                	li	a1,0
     3ac:	4501                	li	a0,0
     3ae:	091020ef          	jal	ra,2c3e <USB_Port_Set>
     3b2:	449c                	lw	a5,8(s1)
     3b4:	2bc00513          	li	a0,700
     3b8:	9782                	jalr	a5
     3ba:	4585                	li	a1,1
     3bc:	4505                	li	a0,1
     3be:	081020ef          	jal	ra,2c3e <USB_Port_Set>
     3c2:	02f020ef          	jal	ra,2bf0 <USB_Interrupts_Config>
     3c6:	449c                	lw	a5,8(s1)
     3c8:	2bc00513          	li	a0,700
     3cc:	9782                	jalr	a5
     3ce:	4498                	lw	a4,8(s1)
     3d0:	3c018793          	addi	a5,gp,960 # 20000ee0 <Fun>
     3d4:	c7d8                	sw	a4,12(a5)
     3d6:	20000737          	lui	a4,0x20000
     3da:	01870713          	addi	a4,a4,24 # 20000018 <SYS_Time+0x8>
     3de:	cbd8                	sw	a4,20(a5)
     3e0:	00004737          	lui	a4,0x4
     3e4:	cbe70713          	addi	a4,a4,-834 # 3cbe <Over_Time>
     3e8:	cb98                	sw	a4,16(a5)
     3ea:	3f01a703          	lw	a4,1008(gp) # 20000f10 <Mode_User>
     3ee:	00005537          	lui	a0,0x5
     3f2:	c5050513          	addi	a0,a0,-944 # 4c50 <strlen+0x112>
     3f6:	c3d8                	sw	a4,4(a5)
     3f8:	00004737          	lui	a4,0x4
     3fc:	bd270713          	addi	a4,a4,-1070 # 3bd2 <CRC16_CCITT_CalculateBuf>
     400:	c798                	sw	a4,8(a5)
     402:	000007b7          	lui	a5,0x0
     406:	1ee78793          	addi	a5,a5,494 # 1ee <Send_Data>
     40a:	3cf1a023          	sw	a5,960(gp) # 20000ee0 <Fun>
     40e:	701030ef          	jal	ra,430e <puts>
     412:	200007b7          	lui	a5,0x20000
     416:	01078793          	addi	a5,a5,16 # 20000010 <SYS_Time>
     41a:	4462                	lw	s0,24(sp)
     41c:	40f2                	lw	ra,28(sp)
     41e:	44d2                	lw	s1,20(sp)
     420:	4942                	lw	s2,16(sp)
     422:	49b2                	lw	s3,12(sp)
     424:	4a22                	lw	s4,8(sp)
     426:	4788                	lw	a0,8(a5)
     428:	47cc                	lw	a1,12(a5)
     42a:	6105                	addi	sp,sp,32
     42c:	6f10006f          	j	131c <Set_TIME>

00000430 <main>:
     430:	b4010113          	addi	sp,sp,-1216
     434:	4a112e23          	sw	ra,1212(sp)
     438:	4a812c23          	sw	s0,1208(sp)
     43c:	4a912a23          	sw	s1,1204(sp)
     440:	4b312623          	sw	s3,1196(sp)
     444:	4b412423          	sw	s4,1192(sp)
     448:	4b512223          	sw	s5,1188(sp)
     44c:	49712e23          	sw	s7,1180(sp)
     450:	49812c23          	sw	s8,1176(sp)
     454:	49912a23          	sw	s9,1172(sp)
     458:	4b212823          	sw	s2,1200(sp)
     45c:	4b612023          	sw	s6,1184(sp)
     460:	49a12823          	sw	s10,1168(sp)
     464:	49b12623          	sw	s11,1164(sp)
     468:	3525                	jal	290 <Main_Init>
     46a:	4661                	li	a2,24
     46c:	4581                	li	a1,0
     46e:	0808                	addi	a0,sp,16
     470:	39c1                	jal	140 <memset>
     472:	18818793          	addi	a5,gp,392 # 20000ca8 <led>
     476:	c63e                	sw	a5,12(sp)
     478:	20000437          	lui	s0,0x20000
     47c:	000317b7          	lui	a5,0x31
     480:	4485                	li	s1,1
     482:	d4078793          	addi	a5,a5,-704 # 30d40 <_data_lma+0x2bb70>
     486:	01840413          	addi	s0,s0,24 # 20000018 <SYS_Time+0x8>
     48a:	4661                	li	a2,24
     48c:	4581                	li	a1,0
     48e:	1808                	addi	a0,sp,48
     490:	00910d23          	sb	s1,26(sp)
     494:	ce3e                	sw	a5,28(sp)
     496:	d422                	sw	s0,40(sp)
     498:	3165                	jal	140 <memset>
     49a:	3bc18793          	addi	a5,gp,956 # 20000edc <usb>
     49e:	20000a37          	lui	s4,0x20000
     4a2:	02910d23          	sb	s1,58(sp)
     4a6:	d63e                	sw	a5,44(sp)
     4a8:	c4a2                	sw	s0,72(sp)
     4aa:	4981                	li	s3,0
     4ac:	010a0a13          	addi	s4,s4,16 # 20000010 <SYS_Time>
     4b0:	d2818c93          	addi	s9,gp,-728 # 20000848 <USB_Pack>
     4b4:	18c18493          	addi	s1,gp,396 # 20000cac <UART_Pack>
     4b8:	685000ef          	jal	ra,133c <Get_TIME>
     4bc:	00aa2423          	sw	a0,8(s4)
     4c0:	00ba2623          	sw	a1,12(s4)
     4c4:	4681                	li	a3,0
     4c6:	3c018613          	addi	a2,gp,960 # 20000ee0 <Fun>
     4ca:	d2818593          	addi	a1,gp,-728 # 20000848 <USB_Pack>
     4ce:	d1418513          	addi	a0,gp,-748 # 20000834 <HID_Data>
     4d2:	152010ef          	jal	ra,1624 <Pick_Agreement>
     4d6:	4241a503          	lw	a0,1060(gp) # 20000f44 <CV_UART>
     4da:	4681                	li	a3,0
     4dc:	3c018613          	addi	a2,gp,960 # 20000ee0 <Fun>
     4e0:	18c18593          	addi	a1,gp,396 # 20000cac <UART_Pack>
     4e4:	20c50513          	addi	a0,a0,524
     4e8:	13c010ef          	jal	ra,1624 <Pick_Agreement>
     4ec:	d2818913          	addi	s2,gp,-728 # 20000848 <USB_Pack>
     4f0:	21a94703          	lbu	a4,538(s2)
     4f4:	04600793          	li	a5,70
     4f8:	06f71a63          	bne	a4,a5,56c <main+0x13c>
     4fc:	40000613          	li	a2,1024
     500:	4581                	li	a1,0
     502:	0108                	addi	a0,sp,128
     504:	3935                	jal	140 <memset>
     506:	22794783          	lbu	a5,551(s2)
     50a:	f5818413          	addi	s0,gp,-168 # 20000a78 <Send_DATA>
     50e:	12078b63          	beqz	a5,644 <main+0x214>
     512:	22694783          	lbu	a5,550(s2)
     516:	08f10023          	sb	a5,128(sp)
     51a:	00a95783          	lhu	a5,10(s2)
     51e:	00879713          	slli	a4,a5,0x8
     522:	83a1                	srli	a5,a5,0x8
     524:	8fd9                	or	a5,a5,a4
     526:	08f11223          	sh	a5,132(sp)
     52a:	4799                	li	a5,6
     52c:	00f41523          	sh	a5,10(s0)
     530:	05a00793          	li	a5,90
     534:	f4f18c23          	sb	a5,-168(gp) # 20000a78 <Send_DATA>
     538:	011c                	addi	a5,sp,128
     53a:	c45c                	sw	a5,12(s0)
     53c:	67c1                	lui	a5,0x10
     53e:	c05c                	sw	a5,4(s0)
     540:	3bc1a783          	lw	a5,956(gp) # 20000edc <usb>
     544:	3c018593          	addi	a1,gp,960 # 20000ee0 <Fun>
     548:	f5818513          	addi	a0,gp,-168 # 20000a78 <Send_DATA>
     54c:	0785                	addi	a5,a5,1
     54e:	3af1ae23          	sw	a5,956(gp) # 20000edc <usb>
     552:	7ff000ef          	jal	ra,1550 <Send_Agreement>
     556:	23000613          	li	a2,560
     55a:	4581                	li	a1,0
     55c:	f5818513          	addi	a0,gp,-168 # 20000a78 <Send_DATA>
     560:	36c5                	jal	140 <memset>
     562:	23000613          	li	a2,560
     566:	4581                	li	a1,0
     568:	8566                	mv	a0,s9
     56a:	3ed9                	jal	140 <memset>
     56c:	21a4c703          	lbu	a4,538(s1)
     570:	04600793          	li	a5,70
     574:	18c18d93          	addi	s11,gp,396 # 20000cac <UART_Pack>
     578:	06f71a63          	bne	a4,a5,5ec <main+0x1bc>
     57c:	40000613          	li	a2,1024
     580:	4581                	li	a1,0
     582:	0108                	addi	a0,sp,128
     584:	3e75                	jal	140 <memset>
     586:	2274c783          	lbu	a5,551(s1)
     58a:	f5818413          	addi	s0,gp,-168 # 20000a78 <Send_DATA>
     58e:	20078963          	beqz	a5,7a0 <main+0x370>
     592:	2264c783          	lbu	a5,550(s1)
     596:	08f10023          	sb	a5,128(sp)
     59a:	00a4d783          	lhu	a5,10(s1)
     59e:	00879713          	slli	a4,a5,0x8
     5a2:	83a1                	srli	a5,a5,0x8
     5a4:	8fd9                	or	a5,a5,a4
     5a6:	08f11223          	sh	a5,132(sp)
     5aa:	4799                	li	a5,6
     5ac:	00f41523          	sh	a5,10(s0)
     5b0:	05a00793          	li	a5,90
     5b4:	f4f18c23          	sb	a5,-168(gp) # 20000a78 <Send_DATA>
     5b8:	011c                	addi	a5,sp,128
     5ba:	c45c                	sw	a5,12(s0)
     5bc:	67c1                	lui	a5,0x10
     5be:	c05c                	sw	a5,4(s0)
     5c0:	3bc1a783          	lw	a5,956(gp) # 20000edc <usb>
     5c4:	3c018593          	addi	a1,gp,960 # 20000ee0 <Fun>
     5c8:	f5818513          	addi	a0,gp,-168 # 20000a78 <Send_DATA>
     5cc:	0785                	addi	a5,a5,1
     5ce:	3af1ae23          	sw	a5,956(gp) # 20000edc <usb>
     5d2:	77f000ef          	jal	ra,1550 <Send_Agreement>
     5d6:	23000613          	li	a2,560
     5da:	4581                	li	a1,0
     5dc:	f5818513          	addi	a0,gp,-168 # 20000a78 <Send_DATA>
     5e0:	3685                	jal	140 <memset>
     5e2:	23000613          	li	a2,560
     5e6:	4581                	li	a1,0
     5e8:	8526                	mv	a0,s1
     5ea:	3e99                	jal	140 <memset>
     5ec:	00aa4703          	lbu	a4,10(s4)
     5f0:	009a4683          	lbu	a3,9(s4)
     5f4:	008a4603          	lbu	a2,8(s4)
     5f8:	000055b7          	lui	a1,0x5
     5fc:	c6858593          	addi	a1,a1,-920 # 4c68 <strlen+0x12a>
     600:	00e8                	addi	a0,sp,76
     602:	20001437          	lui	s0,0x20001
     606:	4e1030ef          	jal	ra,42e6 <sprintf>
     60a:	3b840413          	addi	s0,s0,952 # 200013b8 <API>
     60e:	445c                	lw	a5,12(s0)
     610:	1068                	addi	a0,sp,44
     612:	9782                	jalr	a5
     614:	445c                	lw	a5,12(s0)
     616:	0068                	addi	a0,sp,12
     618:	9782                	jalr	a5
     61a:	01614703          	lbu	a4,22(sp)
     61e:	3f018793          	addi	a5,gp,1008 # 20000f10 <Mode_User>
     622:	0762                	slli	a4,a4,0x18
     624:	8761                	srai	a4,a4,0x18
     626:	53dc                	lw	a5,36(a5)
     628:	4585                	li	a1,1
     62a:	e311                	bnez	a4,62e <main+0x1fe>
     62c:	4581                	li	a1,0
     62e:	4509                	li	a0,2
     630:	9782                	jalr	a5
     632:	03514783          	lbu	a5,53(sp)
     636:	07e2                	slli	a5,a5,0x18
     638:	87e1                	srai	a5,a5,0x18
     63a:	e6078fe3          	beqz	a5,4b8 <main+0x88>
     63e:	02010aa3          	sb	zero,53(sp)
     642:	bd9d                	j	4b8 <main+0x88>
     644:	22494783          	lbu	a5,548(s2)
     648:	4d85                	li	s11,1
     64a:	07b79c63          	bne	a5,s11,6c2 <main+0x292>
     64e:	22594783          	lbu	a5,549(s2)
     652:	473d                	li	a4,15
     654:	00f76b63          	bltu	a4,a5,66a <main+0x23a>
     658:	6715                	lui	a4,0x5
     65a:	078a                	slli	a5,a5,0x2
     65c:	b5070713          	addi	a4,a4,-1200 # 4b50 <strlen+0x12>
     660:	97ba                	add	a5,a5,a4
     662:	439c                	lw	a5,0(a5)
     664:	8782                	jr	a5
     666:	00041523          	sh	zero,10(s0)
     66a:	225cc783          	lbu	a5,549(s9)
     66e:	6741                	lui	a4,0x10
     670:	10070713          	addi	a4,a4,256 # 10100 <_data_lma+0xaf30>
     674:	97ba                	add	a5,a5,a4
     676:	c05c                	sw	a5,4(s0)
     678:	05a00793          	li	a5,90
     67c:	f4f18c23          	sb	a5,-168(gp) # 20000a78 <Send_DATA>
     680:	011c                	addi	a5,sp,128
     682:	c45c                	sw	a5,12(s0)
     684:	bd75                	j	540 <main+0x110>
     686:	060707b7          	lui	a5,0x6070
     68a:	10178793          	addi	a5,a5,257 # 6070101 <_data_lma+0x606af31>
     68e:	c13e                	sw	a5,128(sp)
     690:	4791                	li	a5,4
     692:	00f41523          	sh	a5,10(s0)
     696:	bfd1                	j	66a <main+0x23a>
     698:	4785                	li	a5,1
     69a:	08f10023          	sb	a5,128(sp)
     69e:	4785                	li	a5,1
     6a0:	bfcd                	j	692 <main+0x262>
     6a2:	4789                	li	a5,2
     6a4:	bfdd                	j	69a <main+0x26a>
     6a6:	00005537          	lui	a0,0x5
     6aa:	c5850513          	addi	a0,a0,-936 # 4c58 <strlen+0x11a>
     6ae:	3a5000ef          	jal	ra,1252 <Debug_Out>
     6b2:	beef07b7          	lui	a5,0xbeef0
     6b6:	e000e737          	lui	a4,0xe000e
     6ba:	08078793          	addi	a5,a5,128 # beef0080 <_eusrstack+0x9eeeb080>
     6be:	c73c                	sw	a5,72(a4)
     6c0:	b76d                	j	66a <main+0x23a>
     6c2:	4709                	li	a4,2
     6c4:	00e79863          	bne	a5,a4,6d4 <main+0x2a4>
     6c8:	6741                	lui	a4,0x10
     6ca:	22594783          	lbu	a5,549(s2)
     6ce:	20070713          	addi	a4,a4,512 # 10200 <_data_lma+0xb030>
     6d2:	b74d                	j	674 <main+0x244>
     6d4:	470d                	li	a4,3
     6d6:	00e79863          	bne	a5,a4,6e6 <main+0x2b6>
     6da:	6741                	lui	a4,0x10
     6dc:	22594783          	lbu	a5,549(s2)
     6e0:	30070713          	addi	a4,a4,768 # 10300 <_data_lma+0xb130>
     6e4:	bf41                	j	674 <main+0x244>
     6e6:	4711                	li	a4,4
     6e8:	f8e798e3          	bne	a5,a4,678 <main+0x248>
     6ec:	22594783          	lbu	a5,549(s2)
     6f0:	cb89                	beqz	a5,702 <main+0x2d2>
     6f2:	03b78463          	beq	a5,s11,71a <main+0x2ea>
     6f6:	6741                	lui	a4,0x10
     6f8:	225cc783          	lbu	a5,549(s9)
     6fc:	40070713          	addi	a4,a4,1024 # 10400 <_data_lma+0xb230>
     700:	bf95                	j	674 <main+0x244>
     702:	4795                	li	a5,5
     704:	4615                	li	a2,5
     706:	d3a18593          	addi	a1,gp,-710 # 2000085a <USB_Pack+0x12>
     70a:	0108                	addi	a0,sp,128
     70c:	00f41523          	sh	a5,10(s0)
     710:	378040ef          	jal	ra,4a88 <memcpy>
     714:	09b10223          	sb	s11,132(sp)
     718:	bff9                	j	6f6 <main+0x2c6>
     71a:	01294703          	lbu	a4,18(s2)
     71e:	0ff00793          	li	a5,255
     722:	04f71063          	bne	a4,a5,762 <main+0x332>
     726:	77d9                	lui	a5,0xffff6
     728:	a0178793          	addi	a5,a5,-1535 # ffff5a01 <_eusrstack+0xdfff0a01>
     72c:	08006537          	lui	a0,0x8006
     730:	c23e                	sw	a5,4(sp)
     732:	4621                	li	a2,8
     734:	4109d793          	srai	a5,s3,0x10
     738:	004c                	addi	a1,sp,4
     73a:	f0050513          	addi	a0,a0,-256 # 8005f00 <_data_lma+0x8000d30>
     73e:	00f11423          	sh	a5,8(sp)
     742:	01311523          	sh	s3,10(sp)
     746:	6d9020ef          	jal	ra,361e <Save_Flash>
     74a:	4795                	li	a5,5
     74c:	4615                	li	a2,5
     74e:	d3a18593          	addi	a1,gp,-710 # 2000085a <USB_Pack+0x12>
     752:	0108                	addi	a0,sp,128
     754:	00f41523          	sh	a5,10(s0)
     758:	330040ef          	jal	ra,4a88 <memcpy>
     75c:	08010223          	sb	zero,132(sp)
     760:	bf59                	j	6f6 <main+0x2c6>
     762:	20000613          	li	a2,512
     766:	0ff00593          	li	a1,255
     76a:	0108                	addi	a0,sp,128
     76c:	3ad1                	jal	140 <memset>
     76e:	01694783          	lbu	a5,22(s2)
     772:	01794903          	lbu	s2,23(s2)
     776:	07a2                	slli	a5,a5,0x8
     778:	993e                	add	s2,s2,a5
     77a:	0942                	slli	s2,s2,0x10
     77c:	01095913          	srli	s2,s2,0x10
     780:	864a                	mv	a2,s2
     782:	d4018593          	addi	a1,gp,-704 # 20000860 <USB_Pack+0x18>
     786:	0108                	addi	a0,sp,128
     788:	300040ef          	jal	ra,4a88 <memcpy>
     78c:	08006537          	lui	a0,0x8006
     790:	954e                	add	a0,a0,s3
     792:	10000613          	li	a2,256
     796:	010c                	addi	a1,sp,128
     798:	687020ef          	jal	ra,361e <Save_Flash>
     79c:	99ca                	add	s3,s3,s2
     79e:	b775                	j	74a <main+0x31a>
     7a0:	2244c783          	lbu	a5,548(s1)
     7a4:	4905                	li	s2,1
     7a6:	07279c63          	bne	a5,s2,81e <__stack_size+0x1e>
     7aa:	2254c783          	lbu	a5,549(s1)
     7ae:	473d                	li	a4,15
     7b0:	00f76b63          	bltu	a4,a5,7c6 <main+0x396>
     7b4:	6715                	lui	a4,0x5
     7b6:	078a                	slli	a5,a5,0x2
     7b8:	b9070713          	addi	a4,a4,-1136 # 4b90 <strlen+0x52>
     7bc:	97ba                	add	a5,a5,a4
     7be:	439c                	lw	a5,0(a5)
     7c0:	8782                	jr	a5
     7c2:	00041523          	sh	zero,10(s0)
     7c6:	225dc783          	lbu	a5,549(s11)
     7ca:	6741                	lui	a4,0x10
     7cc:	10070713          	addi	a4,a4,256 # 10100 <_data_lma+0xaf30>
     7d0:	97ba                	add	a5,a5,a4
     7d2:	c05c                	sw	a5,4(s0)
     7d4:	05a00793          	li	a5,90
     7d8:	f4f18c23          	sb	a5,-168(gp) # 20000a78 <Send_DATA>
     7dc:	011c                	addi	a5,sp,128
     7de:	c45c                	sw	a5,12(s0)
     7e0:	b3c5                	j	5c0 <main+0x190>
     7e2:	060707b7          	lui	a5,0x6070
     7e6:	10178793          	addi	a5,a5,257 # 6070101 <_data_lma+0x606af31>
     7ea:	c13e                	sw	a5,128(sp)
     7ec:	4791                	li	a5,4
     7ee:	00f41523          	sh	a5,10(s0)
     7f2:	bfd1                	j	7c6 <main+0x396>
     7f4:	4785                	li	a5,1
     7f6:	08f10023          	sb	a5,128(sp)
     7fa:	4785                	li	a5,1
     7fc:	bfcd                	j	7ee <main+0x3be>
     7fe:	4789                	li	a5,2
     800:	bfdd                	j	7f6 <main+0x3c6>
     802:	00005537          	lui	a0,0x5
     806:	c5850513          	addi	a0,a0,-936 # 4c58 <strlen+0x11a>
     80a:	249000ef          	jal	ra,1252 <Debug_Out>
     80e:	beef07b7          	lui	a5,0xbeef0
     812:	e000e737          	lui	a4,0xe000e
     816:	08078793          	addi	a5,a5,128 # beef0080 <_eusrstack+0x9eeeb080>
     81a:	c73c                	sw	a5,72(a4)
     81c:	b76d                	j	7c6 <main+0x396>
     81e:	4709                	li	a4,2
     820:	00e79863          	bne	a5,a4,830 <__stack_size+0x30>
     824:	6741                	lui	a4,0x10
     826:	2254c783          	lbu	a5,549(s1)
     82a:	20070713          	addi	a4,a4,512 # 10200 <_data_lma+0xb030>
     82e:	b74d                	j	7d0 <main+0x3a0>
     830:	470d                	li	a4,3
     832:	00e79863          	bne	a5,a4,842 <__stack_size+0x42>
     836:	6741                	lui	a4,0x10
     838:	2254c783          	lbu	a5,549(s1)
     83c:	30070713          	addi	a4,a4,768 # 10300 <_data_lma+0xb130>
     840:	bf41                	j	7d0 <main+0x3a0>
     842:	4711                	li	a4,4
     844:	f8e798e3          	bne	a5,a4,7d4 <main+0x3a4>
     848:	2254c783          	lbu	a5,549(s1)
     84c:	cb89                	beqz	a5,85e <__stack_size+0x5e>
     84e:	03278463          	beq	a5,s2,876 <__stack_size+0x76>
     852:	6741                	lui	a4,0x10
     854:	225dc783          	lbu	a5,549(s11)
     858:	40070713          	addi	a4,a4,1024 # 10400 <_data_lma+0xb230>
     85c:	bf95                	j	7d0 <main+0x3a0>
     85e:	4795                	li	a5,5
     860:	4615                	li	a2,5
     862:	19e18593          	addi	a1,gp,414 # 20000cbe <UART_Pack+0x12>
     866:	0108                	addi	a0,sp,128
     868:	00f41523          	sh	a5,10(s0)
     86c:	21c040ef          	jal	ra,4a88 <memcpy>
     870:	09210223          	sb	s2,132(sp)
     874:	bff9                	j	852 <__stack_size+0x52>
     876:	0124c703          	lbu	a4,18(s1)
     87a:	0ff00793          	li	a5,255
     87e:	04f71063          	bne	a4,a5,8be <__stack_size+0xbe>
     882:	77d9                	lui	a5,0xffff6
     884:	a0178793          	addi	a5,a5,-1535 # ffff5a01 <_eusrstack+0xdfff0a01>
     888:	08006537          	lui	a0,0x8006
     88c:	c23e                	sw	a5,4(sp)
     88e:	4621                	li	a2,8
     890:	4109d793          	srai	a5,s3,0x10
     894:	004c                	addi	a1,sp,4
     896:	f0050513          	addi	a0,a0,-256 # 8005f00 <_data_lma+0x8000d30>
     89a:	00f11423          	sh	a5,8(sp)
     89e:	01311523          	sh	s3,10(sp)
     8a2:	57d020ef          	jal	ra,361e <Save_Flash>
     8a6:	4795                	li	a5,5
     8a8:	4615                	li	a2,5
     8aa:	19e18593          	addi	a1,gp,414 # 20000cbe <UART_Pack+0x12>
     8ae:	0108                	addi	a0,sp,128
     8b0:	00f41523          	sh	a5,10(s0)
     8b4:	1d4040ef          	jal	ra,4a88 <memcpy>
     8b8:	08010223          	sb	zero,132(sp)
     8bc:	bf59                	j	852 <__stack_size+0x52>
     8be:	20000613          	li	a2,512
     8c2:	0ff00593          	li	a1,255
     8c6:	0108                	addi	a0,sp,128
     8c8:	38a5                	jal	140 <memset>
     8ca:	0164c903          	lbu	s2,22(s1)
     8ce:	0174c783          	lbu	a5,23(s1)
     8d2:	0922                	slli	s2,s2,0x8
     8d4:	993e                	add	s2,s2,a5
     8d6:	0942                	slli	s2,s2,0x10
     8d8:	01095913          	srli	s2,s2,0x10
     8dc:	864a                	mv	a2,s2
     8de:	1a418593          	addi	a1,gp,420 # 20000cc4 <UART_Pack+0x18>
     8e2:	0108                	addi	a0,sp,128
     8e4:	1a4040ef          	jal	ra,4a88 <memcpy>
     8e8:	08006537          	lui	a0,0x8006
     8ec:	954e                	add	a0,a0,s3
     8ee:	10000613          	li	a2,256
     8f2:	010c                	addi	a1,sp,128
     8f4:	52b020ef          	jal	ra,361e <Save_Flash>
     8f8:	99ca                	add	s3,s3,s2
     8fa:	b775                	j	8a6 <__stack_size+0xa6>

000008fc <SystemInit>:
     8fc:	400217b7          	lui	a5,0x40021
     900:	4398                	lw	a4,0(a5)
     902:	f8ff06b7          	lui	a3,0xf8ff0
     906:	00176713          	ori	a4,a4,1
     90a:	c398                	sw	a4,0(a5)
     90c:	43d8                	lw	a4,4(a5)
     90e:	8f75                	and	a4,a4,a3
     910:	c3d8                	sw	a4,4(a5)
     912:	4398                	lw	a4,0(a5)
     914:	fef706b7          	lui	a3,0xfef70
     918:	16fd                	addi	a3,a3,-1
     91a:	8f75                	and	a4,a4,a3
     91c:	c398                	sw	a4,0(a5)
     91e:	4398                	lw	a4,0(a5)
     920:	fffc06b7          	lui	a3,0xfffc0
     924:	16fd                	addi	a3,a3,-1
     926:	8f75                	and	a4,a4,a3
     928:	c398                	sw	a4,0(a5)
     92a:	43d8                	lw	a4,4(a5)
     92c:	ff8106b7          	lui	a3,0xff810
     930:	16fd                	addi	a3,a3,-1
     932:	8f75                	and	a4,a4,a3
     934:	c3d8                	sw	a4,4(a5)
     936:	009f0737          	lui	a4,0x9f0
     93a:	c798                	sw	a4,8(a5)
     93c:	400246b7          	lui	a3,0x40024
     940:	8006a703          	lw	a4,-2048(a3) # 40023800 <_eusrstack+0x2001e800>
     944:	01076713          	ori	a4,a4,16
     948:	80e6a023          	sw	a4,-2048(a3)
     94c:	43d8                	lw	a4,4(a5)
     94e:	ffc106b7          	lui	a3,0xffc10
     952:	16fd                	addi	a3,a3,-1
     954:	c3d8                	sw	a4,4(a5)
     956:	43d8                	lw	a4,4(a5)
     958:	c3d8                	sw	a4,4(a5)
     95a:	43d8                	lw	a4,4(a5)
     95c:	c3d8                	sw	a4,4(a5)
     95e:	43d8                	lw	a4,4(a5)
     960:	8f75                	and	a4,a4,a3
     962:	c3d8                	sw	a4,4(a5)
     964:	43d8                	lw	a4,4(a5)
     966:	003c06b7          	lui	a3,0x3c0
     96a:	8f55                	or	a4,a4,a3
     96c:	c3d8                	sw	a4,4(a5)
     96e:	4398                	lw	a4,0(a5)
     970:	010006b7          	lui	a3,0x1000
     974:	8f55                	or	a4,a4,a3
     976:	c398                	sw	a4,0(a5)
     978:	4398                	lw	a4,0(a5)
     97a:	00671693          	slli	a3,a4,0x6
     97e:	fe06dde3          	bgez	a3,978 <SystemInit+0x7c>
     982:	43d8                	lw	a4,4(a5)
     984:	400216b7          	lui	a3,0x40021
     988:	9b71                	andi	a4,a4,-4
     98a:	c3d8                	sw	a4,4(a5)
     98c:	43d8                	lw	a4,4(a5)
     98e:	00276713          	ori	a4,a4,2
     992:	c3d8                	sw	a4,4(a5)
     994:	4721                	li	a4,8
     996:	42dc                	lw	a5,4(a3)
     998:	8bb1                	andi	a5,a5,12
     99a:	fee79ee3          	bne	a5,a4,996 <SystemInit+0x9a>
     99e:	8082                	ret
     9a0:	a001                	j	9a0 <SystemInit+0xa4>
     9a2:	a001                	j	9a2 <SystemInit+0xa6>

000009a4 <Ecall_M_Mode_Handler>:
     9a4:	a001                	j	9a4 <Ecall_M_Mode_Handler>

000009a6 <Ecall_U_Mode_Handler>:
     9a6:	a001                	j	9a6 <Ecall_U_Mode_Handler>

000009a8 <Break_Point_Handler>:
     9a8:	a001                	j	9a8 <Break_Point_Handler>

000009aa <SysTick_Handler>:
     9aa:	a001                	j	9aa <SysTick_Handler>

000009ac <SW_handler>:
     9ac:	a001                	j	9ac <SW_handler>

000009ae <WWDG_IRQHandler>:
     9ae:	a001                	j	9ae <WWDG_IRQHandler>

000009b0 <PVD_IRQHandler>:
     9b0:	a001                	j	9b0 <PVD_IRQHandler>

000009b2 <TAMPER_IRQHandler>:
     9b2:	a001                	j	9b2 <TAMPER_IRQHandler>

000009b4 <RTC_IRQHandler>:
     9b4:	a001                	j	9b4 <RTC_IRQHandler>

000009b6 <FLASH_IRQHandler>:
     9b6:	a001                	j	9b6 <FLASH_IRQHandler>

000009b8 <RCC_IRQHandler>:
     9b8:	a001                	j	9b8 <RCC_IRQHandler>

000009ba <EXTI0_IRQHandler>:
     9ba:	a001                	j	9ba <EXTI0_IRQHandler>

000009bc <EXTI1_IRQHandler>:
     9bc:	a001                	j	9bc <EXTI1_IRQHandler>

000009be <EXTI2_IRQHandler>:
     9be:	a001                	j	9be <EXTI2_IRQHandler>

000009c0 <EXTI3_IRQHandler>:
     9c0:	a001                	j	9c0 <EXTI3_IRQHandler>

000009c2 <EXTI4_IRQHandler>:
     9c2:	a001                	j	9c2 <EXTI4_IRQHandler>

000009c4 <DMA1_Channel1_IRQHandler>:
     9c4:	a001                	j	9c4 <DMA1_Channel1_IRQHandler>

000009c6 <DMA1_Channel2_IRQHandler>:
     9c6:	a001                	j	9c6 <DMA1_Channel2_IRQHandler>

000009c8 <DMA1_Channel3_IRQHandler>:
     9c8:	a001                	j	9c8 <DMA1_Channel3_IRQHandler>

000009ca <DMA1_Channel4_IRQHandler>:
     9ca:	a001                	j	9ca <DMA1_Channel4_IRQHandler>

000009cc <DMA1_Channel5_IRQHandler>:
     9cc:	a001                	j	9cc <DMA1_Channel5_IRQHandler>

000009ce <DMA1_Channel6_IRQHandler>:
     9ce:	a001                	j	9ce <DMA1_Channel6_IRQHandler>

000009d0 <DMA1_Channel7_IRQHandler>:
     9d0:	a001                	j	9d0 <DMA1_Channel7_IRQHandler>

000009d2 <ADC1_2_IRQHandler>:
     9d2:	a001                	j	9d2 <ADC1_2_IRQHandler>

000009d4 <USB_HP_CAN1_TX_IRQHandler>:
     9d4:	a001                	j	9d4 <USB_HP_CAN1_TX_IRQHandler>
     9d6:	a001                	j	9d6 <USB_HP_CAN1_TX_IRQHandler+0x2>

000009d8 <CAN1_RX1_IRQHandler>:
     9d8:	a001                	j	9d8 <CAN1_RX1_IRQHandler>

000009da <CAN1_SCE_IRQHandler>:
     9da:	a001                	j	9da <CAN1_SCE_IRQHandler>

000009dc <EXTI9_5_IRQHandler>:
     9dc:	a001                	j	9dc <EXTI9_5_IRQHandler>

000009de <TIM1_BRK_IRQHandler>:
     9de:	a001                	j	9de <TIM1_BRK_IRQHandler>

000009e0 <TIM1_UP_IRQHandler>:
     9e0:	a001                	j	9e0 <TIM1_UP_IRQHandler>

000009e2 <TIM1_TRG_COM_IRQHandler>:
     9e2:	a001                	j	9e2 <TIM1_TRG_COM_IRQHandler>

000009e4 <TIM1_CC_IRQHandler>:
     9e4:	a001                	j	9e4 <TIM1_CC_IRQHandler>

000009e6 <TIM2_IRQHandler>:
     9e6:	a001                	j	9e6 <TIM2_IRQHandler>

000009e8 <TIM3_IRQHandler>:
     9e8:	a001                	j	9e8 <TIM3_IRQHandler>

000009ea <TIM4_IRQHandler>:
     9ea:	a001                	j	9ea <TIM4_IRQHandler>

000009ec <I2C1_EV_IRQHandler>:
     9ec:	a001                	j	9ec <I2C1_EV_IRQHandler>

000009ee <I2C1_ER_IRQHandler>:
     9ee:	a001                	j	9ee <I2C1_ER_IRQHandler>

000009f0 <I2C2_EV_IRQHandler>:
     9f0:	a001                	j	9f0 <I2C2_EV_IRQHandler>

000009f2 <I2C2_ER_IRQHandler>:
     9f2:	a001                	j	9f2 <I2C2_ER_IRQHandler>

000009f4 <SPI1_IRQHandler>:
     9f4:	a001                	j	9f4 <SPI1_IRQHandler>

000009f6 <SPI2_IRQHandler>:
     9f6:	a001                	j	9f6 <SPI2_IRQHandler>
     9f8:	a001                	j	9f8 <SPI2_IRQHandler+0x2>
     9fa:	a001                	j	9fa <SPI2_IRQHandler+0x4>

000009fc <USART3_IRQHandler>:
     9fc:	a001                	j	9fc <USART3_IRQHandler>

000009fe <EXTI15_10_IRQHandler>:
     9fe:	a001                	j	9fe <EXTI15_10_IRQHandler>

00000a00 <RTCAlarm_IRQHandler>:
     a00:	a001                	j	a00 <RTCAlarm_IRQHandler>
     a02:	a001                	j	a02 <RTCAlarm_IRQHandler+0x2>

00000a04 <USBHD_IRQHandler>:
     a04:	a001                	j	a04 <USBHD_IRQHandler>

00000a06 <USBHDWakeUp_IRQHandler>:
     a06:	a001                	j	a06 <USBHDWakeUp_IRQHandler>

00000a08 <UART4_IRQHandler>:
     a08:	a001                	j	a08 <UART4_IRQHandler>

00000a0a <DMA1_Channel8_IRQHandler>:
     a0a:	a001                	j	a0a <DMA1_Channel8_IRQHandler>

00000a0c <handle_reset>:
     a0c:	20000197          	auipc	gp,0x20000
     a10:	11418193          	addi	gp,gp,276 # 20000b20 <__global_pointer$>
     a14:	20004117          	auipc	sp,0x20004
     a18:	5ec10113          	addi	sp,sp,1516 # 20005000 <_eusrstack>
     a1c:	00004517          	auipc	a0,0x4
     a20:	7b450513          	addi	a0,a0,1972 # 51d0 <_data_lma>
     a24:	1ffff597          	auipc	a1,0x1ffff
     a28:	5dc58593          	addi	a1,a1,1500 # 20000000 <_data_vma>
     a2c:	82818613          	addi	a2,gp,-2008 # 20000348 <_edata>
     a30:	00c5fa63          	bgeu	a1,a2,a44 <handle_reset+0x38>
     a34:	00052283          	lw	t0,0(a0)
     a38:	0055a023          	sw	t0,0(a1)
     a3c:	0511                	addi	a0,a0,4
     a3e:	0591                	addi	a1,a1,4
     a40:	fec5eae3          	bltu	a1,a2,a34 <handle_reset+0x28>
     a44:	82818513          	addi	a0,gp,-2008 # 20000348 <_edata>
     a48:	20001597          	auipc	a1,0x20001
     a4c:	98458593          	addi	a1,a1,-1660 # 200013cc <_ebss>
     a50:	00b57763          	bgeu	a0,a1,a5e <handle_reset+0x52>
     a54:	00052023          	sw	zero,0(a0)
     a58:	0511                	addi	a0,a0,4
     a5a:	feb56de3          	bltu	a0,a1,a54 <handle_reset+0x48>
     a5e:	42fd                	li	t0,31
     a60:	bc029073          	csrw	0xbc0,t0
     a64:	428d                	li	t0,3
     a66:	80429073          	csrw	0x804,t0
     a6a:	000082b7          	lui	t0,0x8
     a6e:	88828293          	addi	t0,t0,-1912 # 7888 <_data_lma+0x26b8>
     a72:	3002a073          	csrs	mstatus,t0
     a76:	fffff297          	auipc	t0,0xfffff
     a7a:	5c228293          	addi	t0,t0,1474 # 38 <_einit>
     a7e:	0032e293          	ori	t0,t0,3
     a82:	30529073          	csrw	mtvec,t0
     a86:	e77ff0ef          	jal	ra,8fc <SystemInit>
     a8a:	00000297          	auipc	t0,0x0
     a8e:	9a628293          	addi	t0,t0,-1626 # 430 <main>
     a92:	34129073          	csrw	mepc,t0
     a96:	30200073          	mret

00000a9a <BKP_TamperPinCmd>:
     a9a:	40007737          	lui	a4,0x40007
     a9e:	c0070713          	addi	a4,a4,-1024 # 40006c00 <_eusrstack+0x20001c00>
     aa2:	03075783          	lhu	a5,48(a4)
     aa6:	c511                	beqz	a0,ab2 <BKP_TamperPinCmd+0x18>
     aa8:	0017e793          	ori	a5,a5,1
     aac:	02f71823          	sh	a5,48(a4)
     ab0:	8082                	ret
     ab2:	07c2                	slli	a5,a5,0x10
     ab4:	83c1                	srli	a5,a5,0x10
     ab6:	9bf9                	andi	a5,a5,-2
     ab8:	07c2                	slli	a5,a5,0x10
     aba:	83c1                	srli	a5,a5,0x10
     abc:	bfc5                	j	aac <BKP_TamperPinCmd+0x12>

00000abe <EXTI_Init>:
     abe:	4158                	lw	a4,4(a0)
     ac0:	00052803          	lw	a6,0(a0)
     ac4:	454c                	lw	a1,12(a0)
     ac6:	40010637          	lui	a2,0x40010
     aca:	40060793          	addi	a5,a2,1024 # 40010400 <_eusrstack+0x2000b400>
     ace:	973e                	add	a4,a4,a5
     ad0:	fff84693          	not	a3,a6
     ad4:	c5b1                	beqz	a1,b20 <EXTI_Init+0x62>
     ad6:	40062583          	lw	a1,1024(a2)
     ada:	8df5                	and	a1,a1,a3
     adc:	40b62023          	sw	a1,1024(a2)
     ae0:	43d0                	lw	a2,4(a5)
     ae2:	8ef1                	and	a3,a3,a2
     ae4:	c3d4                	sw	a3,4(a5)
     ae6:	4314                	lw	a3,0(a4)
     ae8:	0106e6b3          	or	a3,a3,a6
     aec:	c314                	sw	a3,0(a4)
     aee:	4118                	lw	a4,0(a0)
     af0:	4790                	lw	a2,8(a5)
     af2:	fff74693          	not	a3,a4
     af6:	8e75                	and	a2,a2,a3
     af8:	c790                	sw	a2,8(a5)
     afa:	47d0                	lw	a2,12(a5)
     afc:	8ef1                	and	a3,a3,a2
     afe:	c7d4                	sw	a3,12(a5)
     b00:	4514                	lw	a3,8(a0)
     b02:	4641                	li	a2,16
     b04:	00c69963          	bne	a3,a2,b16 <EXTI_Init+0x58>
     b08:	4794                	lw	a3,8(a5)
     b0a:	8ed9                	or	a3,a3,a4
     b0c:	c794                	sw	a3,8(a5)
     b0e:	47d4                	lw	a3,12(a5)
     b10:	8f55                	or	a4,a4,a3
     b12:	c7d8                	sw	a4,12(a5)
     b14:	8082                	ret
     b16:	97b6                	add	a5,a5,a3
     b18:	4394                	lw	a3,0(a5)
     b1a:	8f55                	or	a4,a4,a3
     b1c:	c398                	sw	a4,0(a5)
     b1e:	8082                	ret
     b20:	431c                	lw	a5,0(a4)
     b22:	8ff5                	and	a5,a5,a3
     b24:	c31c                	sw	a5,0(a4)
     b26:	8082                	ret

00000b28 <EXTI_ClearITPendingBit>:
     b28:	400107b7          	lui	a5,0x40010
     b2c:	40a7aa23          	sw	a0,1044(a5) # 40010414 <_eusrstack+0x2000b414>
     b30:	8082                	ret

00000b32 <FLASH_Lock>:
     b32:	40022737          	lui	a4,0x40022
     b36:	4b1c                	lw	a5,16(a4)
     b38:	0807e793          	ori	a5,a5,128
     b3c:	cb1c                	sw	a5,16(a4)
     b3e:	8082                	ret

00000b40 <FLASH_ClearFlag>:
     b40:	400227b7          	lui	a5,0x40022
     b44:	c7c8                	sw	a0,12(a5)
     b46:	8082                	ret

00000b48 <FLASH_GetStatus>:
     b48:	400227b7          	lui	a5,0x40022
     b4c:	47d8                	lw	a4,12(a5)
     b4e:	4505                	li	a0,1
     b50:	8b05                	andi	a4,a4,1
     b52:	eb11                	bnez	a4,b66 <FLASH_GetStatus+0x1e>
     b54:	47d8                	lw	a4,12(a5)
     b56:	4509                	li	a0,2
     b58:	8b11                	andi	a4,a4,4
     b5a:	e711                	bnez	a4,b66 <FLASH_GetStatus+0x1e>
     b5c:	47c8                	lw	a0,12(a5)
     b5e:	8941                	andi	a0,a0,16
     b60:	00153513          	seqz	a0,a0
     b64:	050d                	addi	a0,a0,3
     b66:	8082                	ret

00000b68 <FLASH_Unlock_Fast>:
     b68:	456706b7          	lui	a3,0x45670
     b6c:	400227b7          	lui	a5,0x40022
     b70:	12368693          	addi	a3,a3,291 # 45670123 <_eusrstack+0x2566b123>
     b74:	cdef9737          	lui	a4,0xcdef9
     b78:	c3d4                	sw	a3,4(a5)
     b7a:	9ab70713          	addi	a4,a4,-1621 # cdef89ab <_eusrstack+0xadef39ab>
     b7e:	c3d8                	sw	a4,4(a5)
     b80:	d3d4                	sw	a3,36(a5)
     b82:	d3d8                	sw	a4,36(a5)
     b84:	8082                	ret

00000b86 <FLASH_Lock_Fast>:
     b86:	b775                	j	b32 <FLASH_Lock>

00000b88 <FLASH_ErasePage_Fast>:
     b88:	400227b7          	lui	a5,0x40022
     b8c:	4b98                	lw	a4,16(a5)
     b8e:	000206b7          	lui	a3,0x20
     b92:	f0057513          	andi	a0,a0,-256
     b96:	8f55                	or	a4,a4,a3
     b98:	cb98                	sw	a4,16(a5)
     b9a:	cbc8                	sw	a0,20(a5)
     b9c:	4b98                	lw	a4,16(a5)
     b9e:	04076713          	ori	a4,a4,64
     ba2:	cb98                	sw	a4,16(a5)
     ba4:	47d8                	lw	a4,12(a5)
     ba6:	8b05                	andi	a4,a4,1
     ba8:	ff75                	bnez	a4,ba4 <FLASH_ErasePage_Fast+0x1c>
     baa:	4b98                	lw	a4,16(a5)
     bac:	7681                	lui	a3,0xfffe0
     bae:	16fd                	addi	a3,a3,-1
     bb0:	8f75                	and	a4,a4,a3
     bb2:	cb98                	sw	a4,16(a5)
     bb4:	8082                	ret

00000bb6 <FLASH_ProgramPage_Fast>:
     bb6:	40022737          	lui	a4,0x40022
     bba:	4b1c                	lw	a5,16(a4)
     bbc:	66c1                	lui	a3,0x10
     bbe:	f0057513          	andi	a0,a0,-256
     bc2:	8fd5                	or	a5,a5,a3
     bc4:	cb1c                	sw	a5,16(a4)
     bc6:	475c                	lw	a5,12(a4)
     bc8:	8b85                	andi	a5,a5,1
     bca:	fff5                	bnez	a5,bc6 <FLASH_ProgramPage_Fast+0x10>
     bcc:	40022737          	lui	a4,0x40022
     bd0:	475c                	lw	a5,12(a4)
     bd2:	8b89                	andi	a5,a5,2
     bd4:	fff5                	bnez	a5,bd0 <FLASH_ProgramPage_Fast+0x1a>
     bd6:	40022737          	lui	a4,0x40022
     bda:	10000613          	li	a2,256
     bde:	00f586b3          	add	a3,a1,a5
     be2:	0006a803          	lw	a6,0(a3) # 10000 <_data_lma+0xae30>
     be6:	00f506b3          	add	a3,a0,a5
     bea:	0106a023          	sw	a6,0(a3)
     bee:	4754                	lw	a3,12(a4)
     bf0:	8a89                	andi	a3,a3,2
     bf2:	fef5                	bnez	a3,bee <FLASH_ProgramPage_Fast+0x38>
     bf4:	0791                	addi	a5,a5,4
     bf6:	fec794e3          	bne	a5,a2,bde <FLASH_ProgramPage_Fast+0x28>
     bfa:	4b1c                	lw	a5,16(a4)
     bfc:	002006b7          	lui	a3,0x200
     c00:	8fd5                	or	a5,a5,a3
     c02:	cb1c                	sw	a5,16(a4)
     c04:	400227b7          	lui	a5,0x40022
     c08:	47d8                	lw	a4,12(a5)
     c0a:	8b05                	andi	a4,a4,1
     c0c:	ff75                	bnez	a4,c08 <FLASH_ProgramPage_Fast+0x52>
     c0e:	4b98                	lw	a4,16(a5)
     c10:	76c1                	lui	a3,0xffff0
     c12:	16fd                	addi	a3,a3,-1
     c14:	8f75                	and	a4,a4,a3
     c16:	cb98                	sw	a4,16(a5)
     c18:	8082                	ret

00000c1a <GPIO_Init>:
     c1a:	459c                	lw	a5,8(a1)
     c1c:	0107f713          	andi	a4,a5,16
     c20:	00f7f813          	andi	a6,a5,15
     c24:	c701                	beqz	a4,c2c <GPIO_Init+0x12>
     c26:	41d8                	lw	a4,4(a1)
     c28:	00e86833          	or	a6,a6,a4
     c2c:	40011737          	lui	a4,0x40011
     c30:	00e51763          	bne	a0,a4,c3e <GPIO_Init+0x24>
     c34:	0005d703          	lhu	a4,0(a1)
     c38:	8335                	srli	a4,a4,0xd
     c3a:	00e59023          	sh	a4,0(a1)
     c3e:	0005d583          	lhu	a1,0(a1)
     c42:	0ff5f713          	andi	a4,a1,255
     c46:	c339                	beqz	a4,c8c <GPIO_Init+0x72>
     c48:	4118                	lw	a4,0(a0)
     c4a:	4681                	li	a3,0
     c4c:	4e85                	li	t4,1
     c4e:	4f3d                	li	t5,15
     c50:	02800f93          	li	t6,40
     c54:	04800293          	li	t0,72
     c58:	4e21                	li	t3,8
     c5a:	00de9633          	sll	a2,t4,a3
     c5e:	00c5f8b3          	and	a7,a1,a2
     c62:	03161163          	bne	a2,a7,c84 <GPIO_Init+0x6a>
     c66:	00269893          	slli	a7,a3,0x2
     c6a:	011f1333          	sll	t1,t5,a7
     c6e:	fff34313          	not	t1,t1
     c72:	00e37733          	and	a4,t1,a4
     c76:	011818b3          	sll	a7,a6,a7
     c7a:	00e8e733          	or	a4,a7,a4
     c7e:	05f79f63          	bne	a5,t6,cdc <GPIO_Init+0xc2>
     c82:	c950                	sw	a2,20(a0)
     c84:	0685                	addi	a3,a3,1
     c86:	fdc69ae3          	bne	a3,t3,c5a <GPIO_Init+0x40>
     c8a:	c118                	sw	a4,0(a0)
     c8c:	0ff00713          	li	a4,255
     c90:	04b77563          	bgeu	a4,a1,cda <GPIO_Init+0xc0>
     c94:	4154                	lw	a3,4(a0)
     c96:	4621                	li	a2,8
     c98:	4e85                	li	t4,1
     c9a:	4f3d                	li	t5,15
     c9c:	02800f93          	li	t6,40
     ca0:	04800293          	li	t0,72
     ca4:	4e41                	li	t3,16
     ca6:	00ce98b3          	sll	a7,t4,a2
     caa:	0115f733          	and	a4,a1,a7
     cae:	02e89263          	bne	a7,a4,cd2 <GPIO_Init+0xb8>
     cb2:	00261713          	slli	a4,a2,0x2
     cb6:	1701                	addi	a4,a4,-32
     cb8:	00ef1333          	sll	t1,t5,a4
     cbc:	fff34313          	not	t1,t1
     cc0:	00d376b3          	and	a3,t1,a3
     cc4:	00e81733          	sll	a4,a6,a4
     cc8:	8ed9                	or	a3,a3,a4
     cca:	01f79d63          	bne	a5,t6,ce4 <GPIO_Init+0xca>
     cce:	01152a23          	sw	a7,20(a0)
     cd2:	0605                	addi	a2,a2,1
     cd4:	fdc619e3          	bne	a2,t3,ca6 <GPIO_Init+0x8c>
     cd8:	c154                	sw	a3,4(a0)
     cda:	8082                	ret
     cdc:	fa5794e3          	bne	a5,t0,c84 <GPIO_Init+0x6a>
     ce0:	c910                	sw	a2,16(a0)
     ce2:	b74d                	j	c84 <GPIO_Init+0x6a>
     ce4:	fe5797e3          	bne	a5,t0,cd2 <GPIO_Init+0xb8>
     ce8:	01152823          	sw	a7,16(a0)
     cec:	b7dd                	j	cd2 <GPIO_Init+0xb8>

00000cee <GPIO_ReadInputDataBit>:
     cee:	400117b7          	lui	a5,0x40011
     cf2:	00f51363          	bne	a0,a5,cf8 <GPIO_ReadInputDataBit+0xa>
     cf6:	81b5                	srli	a1,a1,0xd
     cf8:	4508                	lw	a0,8(a0)
     cfa:	8d6d                	and	a0,a0,a1
     cfc:	00a03533          	snez	a0,a0
     d00:	8082                	ret

00000d02 <NVIC_PriorityGroupConfig>:
     d02:	82a1a423          	sw	a0,-2008(gp) # 20000348 <_edata>
     d06:	8082                	ret

00000d08 <NVIC_Init>:
     d08:	82818793          	addi	a5,gp,-2008 # 20000348 <_edata>
     d0c:	4394                	lw	a3,0(a5)
     d0e:	00054703          	lbu	a4,0(a0)
     d12:	e689                	bnez	a3,d1c <NVIC_Init+0x14>
     d14:	00254783          	lbu	a5,2(a0)
     d18:	0792                	slli	a5,a5,0x4
     d1a:	a831                	j	d36 <NVIC_Init+0x2e>
     d1c:	4394                	lw	a3,0(a5)
     d1e:	4605                	li	a2,1
     d20:	04c69163          	bne	a3,a2,d62 <NVIC_Init+0x5a>
     d24:	00254783          	lbu	a5,2(a0)
     d28:	00154603          	lbu	a2,1(a0)
     d2c:	0792                	slli	a5,a5,0x4
     d2e:	00d61463          	bne	a2,a3,d36 <NVIC_Init+0x2e>
     d32:	f807e793          	ori	a5,a5,-128
     d36:	e000e6b7          	lui	a3,0xe000e
     d3a:	0ff7f793          	andi	a5,a5,255
     d3e:	96ba                	add	a3,a3,a4
     d40:	40f68023          	sb	a5,1024(a3) # e000e400 <_eusrstack+0xc0009400>
     d44:	4685                	li	a3,1
     d46:	00575793          	srli	a5,a4,0x5
     d4a:	00e69733          	sll	a4,a3,a4
     d4e:	4154                	lw	a3,4(a0)
     d50:	c6ad                	beqz	a3,dba <NVIC_Init+0xb2>
     d52:	04078793          	addi	a5,a5,64 # 40011040 <_eusrstack+0x2000c040>
     d56:	078a                	slli	a5,a5,0x2
     d58:	e000e6b7          	lui	a3,0xe000e
     d5c:	97b6                	add	a5,a5,a3
     d5e:	c398                	sw	a4,0(a5)
     d60:	8082                	ret
     d62:	438c                	lw	a1,0(a5)
     d64:	4689                	li	a3,2
     d66:	02d59363          	bne	a1,a3,d8c <NVIC_Init+0x84>
     d6a:	00154683          	lbu	a3,1(a0)
     d6e:	00254783          	lbu	a5,2(a0)
     d72:	00d66563          	bltu	a2,a3,d7c <NVIC_Init+0x74>
     d76:	068a                	slli	a3,a3,0x2
     d78:	97b6                	add	a5,a5,a3
     d7a:	bf79                	j	d18 <NVIC_Init+0x10>
     d7c:	03e68693          	addi	a3,a3,62 # e000e03e <_eusrstack+0xc000903e>
     d80:	068a                	slli	a3,a3,0x2
     d82:	97b6                	add	a5,a5,a3
     d84:	0ff7f793          	andi	a5,a5,255
     d88:	0792                	slli	a5,a5,0x4
     d8a:	b765                	j	d32 <NVIC_Init+0x2a>
     d8c:	4390                	lw	a2,0(a5)
     d8e:	468d                	li	a3,3
     d90:	00d61e63          	bne	a2,a3,dac <NVIC_Init+0xa4>
     d94:	00154683          	lbu	a3,1(a0)
     d98:	00254783          	lbu	a5,2(a0)
     d9c:	00d66463          	bltu	a2,a3,da4 <NVIC_Init+0x9c>
     da0:	0686                	slli	a3,a3,0x1
     da2:	bfd9                	j	d78 <NVIC_Init+0x70>
     da4:	07c68693          	addi	a3,a3,124
     da8:	0686                	slli	a3,a3,0x1
     daa:	bfe1                	j	d82 <NVIC_Init+0x7a>
     dac:	4394                	lw	a3,0(a5)
     dae:	4791                	li	a5,4
     db0:	f8f69ae3          	bne	a3,a5,d44 <NVIC_Init+0x3c>
     db4:	00154783          	lbu	a5,1(a0)
     db8:	b785                	j	d18 <NVIC_Init+0x10>
     dba:	06078793          	addi	a5,a5,96
     dbe:	bf61                	j	d56 <NVIC_Init+0x4e>

00000dc0 <PWR_BackupAccessCmd>:
     dc0:	40007737          	lui	a4,0x40007
     dc4:	431c                	lw	a5,0(a4)
     dc6:	c509                	beqz	a0,dd0 <PWR_BackupAccessCmd+0x10>
     dc8:	1007e793          	ori	a5,a5,256
     dcc:	c31c                	sw	a5,0(a4)
     dce:	8082                	ret
     dd0:	eff7f793          	andi	a5,a5,-257
     dd4:	bfe5                	j	dcc <PWR_BackupAccessCmd+0xc>

00000dd6 <RCC_USBCLKConfig>:
     dd6:	400217b7          	lui	a5,0x40021
     dda:	43d8                	lw	a4,4(a5)
     ddc:	ff4006b7          	lui	a3,0xff400
     de0:	16fd                	addi	a3,a3,-1
     de2:	8f75                	and	a4,a4,a3
     de4:	c3d8                	sw	a4,4(a5)
     de6:	43d8                	lw	a4,4(a5)
     de8:	055a                	slli	a0,a0,0x16
     dea:	8d59                	or	a0,a0,a4
     dec:	c3c8                	sw	a0,4(a5)
     dee:	8082                	ret

00000df0 <RCC_GetClocksFreq>:
     df0:	40021737          	lui	a4,0x40021
     df4:	435c                	lw	a5,4(a4)
     df6:	4691                	li	a3,4
     df8:	8bb1                	andi	a5,a5,12
     dfa:	00d78563          	beq	a5,a3,e04 <RCC_GetClocksFreq+0x14>
     dfe:	46a1                	li	a3,8
     e00:	06d78663          	beq	a5,a3,e6c <RCC_GetClocksFreq+0x7c>
     e04:	007a17b7          	lui	a5,0x7a1
     e08:	20078793          	addi	a5,a5,512 # 7a1200 <_data_lma+0x79c030>
     e0c:	c11c                	sw	a5,0(a0)
     e0e:	40021637          	lui	a2,0x40021
     e12:	425c                	lw	a5,4(a2)
     e14:	20000737          	lui	a4,0x20000
     e18:	00070713          	mv	a4,a4
     e1c:	8391                	srli	a5,a5,0x4
     e1e:	8bbd                	andi	a5,a5,15
     e20:	97ba                	add	a5,a5,a4
     e22:	0007c683          	lbu	a3,0(a5)
     e26:	411c                	lw	a5,0(a0)
     e28:	00d7d7b3          	srl	a5,a5,a3
     e2c:	c15c                	sw	a5,4(a0)
     e2e:	4254                	lw	a3,4(a2)
     e30:	82a1                	srli	a3,a3,0x8
     e32:	8a9d                	andi	a3,a3,7
     e34:	96ba                	add	a3,a3,a4
     e36:	0006c683          	lbu	a3,0(a3) # ff400000 <_eusrstack+0xdf3fb000>
     e3a:	00d7d6b3          	srl	a3,a5,a3
     e3e:	c514                	sw	a3,8(a0)
     e40:	4254                	lw	a3,4(a2)
     e42:	82ad                	srli	a3,a3,0xb
     e44:	8a9d                	andi	a3,a3,7
     e46:	9736                	add	a4,a4,a3
     e48:	00074703          	lbu	a4,0(a4) # 20000000 <_data_vma>
     e4c:	00e7d7b3          	srl	a5,a5,a4
     e50:	c55c                	sw	a5,12(a0)
     e52:	4258                	lw	a4,4(a2)
     e54:	8339                	srli	a4,a4,0xe
     e56:	00377693          	andi	a3,a4,3
     e5a:	80418713          	addi	a4,gp,-2044 # 20000324 <ADCPrescTable>
     e5e:	9736                	add	a4,a4,a3
     e60:	00074703          	lbu	a4,0(a4)
     e64:	02e7d7b3          	divu	a5,a5,a4
     e68:	c91c                	sw	a5,16(a0)
     e6a:	8082                	ret
     e6c:	435c                	lw	a5,4(a4)
     e6e:	4358                	lw	a4,4(a4)
     e70:	66c1                	lui	a3,0x10
     e72:	83c9                	srli	a5,a5,0x12
     e74:	8bbd                	andi	a5,a5,15
     e76:	8f75                	and	a4,a4,a3
     e78:	0789                	addi	a5,a5,2
     e7a:	46c5                	li	a3,17
     e7c:	00d79363          	bne	a5,a3,e82 <RCC_GetClocksFreq+0x92>
     e80:	47c9                	li	a5,18
     e82:	ef01                	bnez	a4,e9a <RCC_GetClocksFreq+0xaa>
     e84:	40024737          	lui	a4,0x40024
     e88:	80072703          	lw	a4,-2048(a4) # 40023800 <_eusrstack+0x2001e800>
     e8c:	8b41                	andi	a4,a4,16
     e8e:	cf09                	beqz	a4,ea8 <RCC_GetClocksFreq+0xb8>
     e90:	007a1737          	lui	a4,0x7a1
     e94:	20070713          	addi	a4,a4,512 # 7a1200 <_data_lma+0x79c030>
     e98:	a821                	j	eb0 <RCC_GetClocksFreq+0xc0>
     e9a:	40021737          	lui	a4,0x40021
     e9e:	4358                	lw	a4,4(a4)
     ea0:	00e71693          	slli	a3,a4,0xe
     ea4:	fe06d6e3          	bgez	a3,e90 <RCC_GetClocksFreq+0xa0>
     ea8:	003d1737          	lui	a4,0x3d1
     eac:	90070713          	addi	a4,a4,-1792 # 3d0900 <_data_lma+0x3cb730>
     eb0:	02e787b3          	mul	a5,a5,a4
     eb4:	bfa1                	j	e0c <RCC_GetClocksFreq+0x1c>

00000eb6 <RCC_APB2PeriphClockCmd>:
     eb6:	c599                	beqz	a1,ec4 <RCC_APB2PeriphClockCmd+0xe>
     eb8:	40021737          	lui	a4,0x40021
     ebc:	4f1c                	lw	a5,24(a4)
     ebe:	8d5d                	or	a0,a0,a5
     ec0:	cf08                	sw	a0,24(a4)
     ec2:	8082                	ret
     ec4:	400217b7          	lui	a5,0x40021
     ec8:	4f98                	lw	a4,24(a5)
     eca:	fff54513          	not	a0,a0
     ece:	8d79                	and	a0,a0,a4
     ed0:	cf88                	sw	a0,24(a5)
     ed2:	8082                	ret

00000ed4 <RCC_APB1PeriphClockCmd>:
     ed4:	c599                	beqz	a1,ee2 <RCC_APB1PeriphClockCmd+0xe>
     ed6:	40021737          	lui	a4,0x40021
     eda:	4f5c                	lw	a5,28(a4)
     edc:	8d5d                	or	a0,a0,a5
     ede:	cf48                	sw	a0,28(a4)
     ee0:	8082                	ret
     ee2:	400217b7          	lui	a5,0x40021
     ee6:	4fd8                	lw	a4,28(a5)
     ee8:	fff54513          	not	a0,a0
     eec:	8d79                	and	a0,a0,a4
     eee:	cfc8                	sw	a0,28(a5)
     ef0:	8082                	ret

00000ef2 <RCC_APB2PeriphResetCmd>:
     ef2:	c599                	beqz	a1,f00 <RCC_APB2PeriphResetCmd+0xe>
     ef4:	40021737          	lui	a4,0x40021
     ef8:	475c                	lw	a5,12(a4)
     efa:	8d5d                	or	a0,a0,a5
     efc:	c748                	sw	a0,12(a4)
     efe:	8082                	ret
     f00:	400217b7          	lui	a5,0x40021
     f04:	47d8                	lw	a4,12(a5)
     f06:	fff54513          	not	a0,a0
     f0a:	8d79                	and	a0,a0,a4
     f0c:	c7c8                	sw	a0,12(a5)
     f0e:	8082                	ret

00000f10 <RCC_APB1PeriphResetCmd>:
     f10:	c599                	beqz	a1,f1e <RCC_APB1PeriphResetCmd+0xe>
     f12:	40021737          	lui	a4,0x40021
     f16:	4b1c                	lw	a5,16(a4)
     f18:	8d5d                	or	a0,a0,a5
     f1a:	cb08                	sw	a0,16(a4)
     f1c:	8082                	ret
     f1e:	400217b7          	lui	a5,0x40021
     f22:	4b98                	lw	a4,16(a5)
     f24:	fff54513          	not	a0,a0
     f28:	8d79                	and	a0,a0,a4
     f2a:	cb88                	sw	a0,16(a5)
     f2c:	8082                	ret

00000f2e <USART_DeInit>:
     f2e:	1141                	addi	sp,sp,-16
     f30:	400147b7          	lui	a5,0x40014
     f34:	c606                	sw	ra,12(sp)
     f36:	80078793          	addi	a5,a5,-2048 # 40013800 <_eusrstack+0x2000e800>
     f3a:	00f51a63          	bne	a0,a5,f4e <USART_DeInit+0x20>
     f3e:	4585                	li	a1,1
     f40:	6511                	lui	a0,0x4
     f42:	3f45                	jal	ef2 <RCC_APB2PeriphResetCmd>
     f44:	40b2                	lw	ra,12(sp)
     f46:	4581                	li	a1,0
     f48:	6511                	lui	a0,0x4
     f4a:	0141                	addi	sp,sp,16
     f4c:	b75d                	j	ef2 <RCC_APB2PeriphResetCmd>
     f4e:	400047b7          	lui	a5,0x40004
     f52:	40078793          	addi	a5,a5,1024 # 40004400 <_eusrstack+0x1ffff400>
     f56:	00f51c63          	bne	a0,a5,f6e <USART_DeInit+0x40>
     f5a:	4585                	li	a1,1
     f5c:	00020537          	lui	a0,0x20
     f60:	3f45                	jal	f10 <RCC_APB1PeriphResetCmd>
     f62:	4581                	li	a1,0
     f64:	00020537          	lui	a0,0x20
     f68:	40b2                	lw	ra,12(sp)
     f6a:	0141                	addi	sp,sp,16
     f6c:	b755                	j	f10 <RCC_APB1PeriphResetCmd>
     f6e:	400057b7          	lui	a5,0x40005
     f72:	80078713          	addi	a4,a5,-2048 # 40004800 <_eusrstack+0x1ffff800>
     f76:	00e51a63          	bne	a0,a4,f8a <USART_DeInit+0x5c>
     f7a:	4585                	li	a1,1
     f7c:	00040537          	lui	a0,0x40
     f80:	3f41                	jal	f10 <RCC_APB1PeriphResetCmd>
     f82:	4581                	li	a1,0
     f84:	00040537          	lui	a0,0x40
     f88:	b7c5                	j	f68 <USART_DeInit+0x3a>
     f8a:	c0078793          	addi	a5,a5,-1024
     f8e:	00f51a63          	bne	a0,a5,fa2 <USART_DeInit+0x74>
     f92:	4585                	li	a1,1
     f94:	00080537          	lui	a0,0x80
     f98:	3fa5                	jal	f10 <RCC_APB1PeriphResetCmd>
     f9a:	4581                	li	a1,0
     f9c:	00080537          	lui	a0,0x80
     fa0:	b7e1                	j	f68 <USART_DeInit+0x3a>
     fa2:	40b2                	lw	ra,12(sp)
     fa4:	0141                	addi	sp,sp,16
     fa6:	8082                	ret

00000fa8 <USART_Init>:
     fa8:	01055683          	lhu	a3,16(a0) # 80010 <_data_lma+0x7ae40>
     fac:	77f5                	lui	a5,0xffffd
     fae:	17fd                	addi	a5,a5,-1
     fb0:	8ff5                	and	a5,a5,a3
     fb2:	0065d683          	lhu	a3,6(a1)
     fb6:	7139                	addi	sp,sp,-64
     fb8:	dc22                	sw	s0,56(sp)
     fba:	de06                	sw	ra,60(sp)
     fbc:	8fd5                	or	a5,a5,a3
     fbe:	00c5d703          	lhu	a4,12(a1)
     fc2:	00f51823          	sh	a5,16(a0)
     fc6:	00c55683          	lhu	a3,12(a0)
     fca:	77fd                	lui	a5,0xfffff
     fcc:	9f378793          	addi	a5,a5,-1549 # ffffe9f3 <_eusrstack+0xdfff99f3>
     fd0:	8ff5                	and	a5,a5,a3
     fd2:	0045d683          	lhu	a3,4(a1)
     fd6:	842a                	mv	s0,a0
     fd8:	c62e                	sw	a1,12(sp)
     fda:	8fd5                	or	a5,a5,a3
     fdc:	0085d683          	lhu	a3,8(a1)
     fe0:	8fd5                	or	a5,a5,a3
     fe2:	00a5d683          	lhu	a3,10(a1)
     fe6:	8fd5                	or	a5,a5,a3
     fe8:	00f51623          	sh	a5,12(a0)
     fec:	01455783          	lhu	a5,20(a0)
     ff0:	07c2                	slli	a5,a5,0x10
     ff2:	83c1                	srli	a5,a5,0x10
     ff4:	cff7f793          	andi	a5,a5,-769
     ff8:	8fd9                	or	a5,a5,a4
     ffa:	00f51a23          	sh	a5,20(a0)
     ffe:	0868                	addi	a0,sp,28
    1000:	3bc5                	jal	df0 <RCC_GetClocksFreq>
    1002:	400147b7          	lui	a5,0x40014
    1006:	80078793          	addi	a5,a5,-2048 # 40013800 <_eusrstack+0x2000e800>
    100a:	45b2                	lw	a1,12(sp)
    100c:	04f41e63          	bne	s0,a5,1068 <USART_Init+0xc0>
    1010:	57a2                	lw	a5,40(sp)
    1012:	00c45683          	lhu	a3,12(s0)
    1016:	4765                	li	a4,25
    1018:	02e787b3          	mul	a5,a5,a4
    101c:	06c2                	slli	a3,a3,0x10
    101e:	86c1                	srai	a3,a3,0x10
    1020:	4198                	lw	a4,0(a1)
    1022:	0406d563          	bgez	a3,106c <USART_Init+0xc4>
    1026:	0706                	slli	a4,a4,0x1
    1028:	00c45603          	lhu	a2,12(s0)
    102c:	0642                	slli	a2,a2,0x10
    102e:	02e7d7b3          	divu	a5,a5,a4
    1032:	06400713          	li	a4,100
    1036:	8641                	srai	a2,a2,0x10
    1038:	02e7d6b3          	divu	a3,a5,a4
    103c:	02e7f7b3          	remu	a5,a5,a4
    1040:	0692                	slli	a3,a3,0x4
    1042:	02065763          	bgez	a2,1070 <USART_Init+0xc8>
    1046:	078e                	slli	a5,a5,0x3
    1048:	03278793          	addi	a5,a5,50
    104c:	02e7d7b3          	divu	a5,a5,a4
    1050:	0077f713          	andi	a4,a5,7
    1054:	00d767b3          	or	a5,a4,a3
    1058:	07c2                	slli	a5,a5,0x10
    105a:	83c1                	srli	a5,a5,0x10
    105c:	00f41423          	sh	a5,8(s0)
    1060:	50f2                	lw	ra,60(sp)
    1062:	5462                	lw	s0,56(sp)
    1064:	6121                	addi	sp,sp,64
    1066:	8082                	ret
    1068:	5792                	lw	a5,36(sp)
    106a:	b765                	j	1012 <USART_Init+0x6a>
    106c:	070a                	slli	a4,a4,0x2
    106e:	bf6d                	j	1028 <USART_Init+0x80>
    1070:	0792                	slli	a5,a5,0x4
    1072:	03278793          	addi	a5,a5,50
    1076:	02e7d7b3          	divu	a5,a5,a4
    107a:	8bbd                	andi	a5,a5,15
    107c:	8fd5                	or	a5,a5,a3
    107e:	bfe9                	j	1058 <USART_Init+0xb0>

00001080 <USART_Cmd>:
    1080:	c981                	beqz	a1,1090 <USART_Cmd+0x10>
    1082:	00c55783          	lhu	a5,12(a0)
    1086:	6709                	lui	a4,0x2
    1088:	8fd9                	or	a5,a5,a4
    108a:	00f51623          	sh	a5,12(a0)
    108e:	8082                	ret
    1090:	00c55703          	lhu	a4,12(a0)
    1094:	77f9                	lui	a5,0xffffe
    1096:	17fd                	addi	a5,a5,-1
    1098:	8ff9                	and	a5,a5,a4
    109a:	bfc5                	j	108a <USART_Cmd+0xa>

0000109c <USART_ITConfig>:
    109c:	0ff5f713          	andi	a4,a1,255
    10a0:	4785                	li	a5,1
    10a2:	8315                	srli	a4,a4,0x5
    10a4:	00b795b3          	sll	a1,a5,a1
    10a8:	00f71963          	bne	a4,a5,10ba <USART_ITConfig+0x1e>
    10ac:	00c50793          	addi	a5,a0,12
    10b0:	4398                	lw	a4,0(a5)
    10b2:	ce01                	beqz	a2,10ca <USART_ITConfig+0x2e>
    10b4:	8dd9                	or	a1,a1,a4
    10b6:	c38c                	sw	a1,0(a5)
    10b8:	8082                	ret
    10ba:	4689                	li	a3,2
    10bc:	01450793          	addi	a5,a0,20
    10c0:	fed718e3          	bne	a4,a3,10b0 <USART_ITConfig+0x14>
    10c4:	01050793          	addi	a5,a0,16
    10c8:	b7e5                	j	10b0 <USART_ITConfig+0x14>
    10ca:	fff5c593          	not	a1,a1
    10ce:	8df9                	and	a1,a1,a4
    10d0:	b7dd                	j	10b6 <USART_ITConfig+0x1a>

000010d2 <USART_SendData>:
    10d2:	1ff5f593          	andi	a1,a1,511
    10d6:	00b51223          	sh	a1,4(a0)
    10da:	8082                	ret

000010dc <USART_ReceiveData>:
    10dc:	00455503          	lhu	a0,4(a0)
    10e0:	1ff57513          	andi	a0,a0,511
    10e4:	8082                	ret

000010e6 <USART_GetFlagStatus>:
    10e6:	00055503          	lhu	a0,0(a0)
    10ea:	8d6d                	and	a0,a0,a1
    10ec:	00a03533          	snez	a0,a0
    10f0:	8082                	ret

000010f2 <USART_ClearFlag>:
    10f2:	fff5c593          	not	a1,a1
    10f6:	05c2                	slli	a1,a1,0x10
    10f8:	81c1                	srli	a1,a1,0x10
    10fa:	00b51023          	sh	a1,0(a0)
    10fe:	8082                	ret

00001100 <USART_GetITStatus>:
    1100:	0ff5f713          	andi	a4,a1,255
    1104:	4685                	li	a3,1
    1106:	8315                	srli	a4,a4,0x5
    1108:	00b697b3          	sll	a5,a3,a1
    110c:	02d71363          	bne	a4,a3,1132 <USART_GetITStatus+0x32>
    1110:	00c55703          	lhu	a4,12(a0)
    1114:	8ff9                	and	a5,a5,a4
    1116:	00055703          	lhu	a4,0(a0)
    111a:	4501                	li	a0,0
    111c:	0742                	slli	a4,a4,0x10
    111e:	8341                	srli	a4,a4,0x10
    1120:	cb81                	beqz	a5,1130 <USART_GetITStatus+0x30>
    1122:	4505                	li	a0,1
    1124:	81a1                	srli	a1,a1,0x8
    1126:	00b515b3          	sll	a1,a0,a1
    112a:	8f6d                	and	a4,a4,a1
    112c:	00e03533          	snez	a0,a4
    1130:	8082                	ret
    1132:	4689                	li	a3,2
    1134:	00d71563          	bne	a4,a3,113e <USART_GetITStatus+0x3e>
    1138:	01055703          	lhu	a4,16(a0)
    113c:	bfe1                	j	1114 <USART_GetITStatus+0x14>
    113e:	01455703          	lhu	a4,20(a0)
    1142:	bfc9                	j	1114 <USART_GetITStatus+0x14>

00001144 <BZZ_Init>:
    1144:	1141                	addi	sp,sp,-16
    1146:	c606                	sw	ra,12(sp)
    1148:	444020ef          	jal	ra,358c <BZZ_GPIO_Init>
    114c:	40b2                	lw	ra,12(sp)
    114e:	400117b7          	lui	a5,0x40011
    1152:	02000713          	li	a4,32
    1156:	c0e7aa23          	sw	a4,-1004(a5) # 40010c14 <_eusrstack+0x2000bc14>
    115a:	0141                	addi	sp,sp,16
    115c:	8082                	ret

0000115e <BZZ_SET>:
    115e:	400117b7          	lui	a5,0x40011
    1162:	c0078793          	addi	a5,a5,-1024 # 40010c00 <_eusrstack+0x2000bc00>
    1166:	02000713          	li	a4,32
    116a:	c119                	beqz	a0,1170 <BZZ_SET+0x12>
    116c:	cb98                	sw	a4,16(a5)
    116e:	8082                	ret
    1170:	cbd8                	sw	a4,20(a5)
    1172:	8082                	ret

00001174 <LED_Init>:
    1174:	3700206f          	j	34e4 <LED_GPIO_Init>

00001178 <LED_SET>:
    1178:	4785                	li	a5,1
    117a:	00f50663          	beq	a0,a5,1186 <LED_SET+0xe>
    117e:	4789                	li	a5,2
    1180:	00f50d63          	beq	a0,a5,119a <LED_SET+0x22>
    1184:	8082                	ret
    1186:	400117b7          	lui	a5,0x40011
    118a:	6705                	lui	a4,0x1
    118c:	c0078793          	addi	a5,a5,-1024 # 40010c00 <_eusrstack+0x2000bc00>
    1190:	80070713          	addi	a4,a4,-2048 # 800 <__stack_size>
    1194:	c991                	beqz	a1,11a8 <LED_SET+0x30>
    1196:	cbd8                	sw	a4,20(a5)
    1198:	8082                	ret
    119a:	400117b7          	lui	a5,0x40011
    119e:	80078793          	addi	a5,a5,-2048 # 40010800 <_eusrstack+0x2000b800>
    11a2:	10000713          	li	a4,256
    11a6:	b7fd                	j	1194 <LED_SET+0x1c>
    11a8:	cb98                	sw	a4,16(a5)
    11aa:	8082                	ret

000011ac <WS2812_Delay>:
    11ac:	1141                	addi	sp,sp,-16
    11ae:	c62a                	sw	a0,12(sp)
    11b0:	47b2                	lw	a5,12(sp)
    11b2:	00f04463          	bgtz	a5,11ba <WS2812_Delay+0xe>
    11b6:	0141                	addi	sp,sp,16
    11b8:	8082                	ret
    11ba:	47b2                	lw	a5,12(sp)
    11bc:	17fd                	addi	a5,a5,-1
    11be:	c63e                	sw	a5,12(sp)
    11c0:	bfc5                	j	11b0 <WS2812_Delay+0x4>

000011c2 <WS2812_write_byte>:
    11c2:	1101                	addi	sp,sp,-32
    11c4:	cc22                	sw	s0,24(sp)
    11c6:	6405                	lui	s0,0x1
    11c8:	ca26                	sw	s1,20(sp)
    11ca:	c64e                	sw	s3,12(sp)
    11cc:	c452                	sw	s4,8(sp)
    11ce:	c256                	sw	s5,4(sp)
    11d0:	ce06                	sw	ra,28(sp)
    11d2:	c84a                	sw	s2,16(sp)
    11d4:	8a2a                	mv	s4,a0
    11d6:	4481                	li	s1,0
    11d8:	40011ab7          	lui	s5,0x40011
    11dc:	80040413          	addi	s0,s0,-2048 # 800 <__stack_size>
    11e0:	49a1                	li	s3,8
    11e2:	009a17b3          	sll	a5,s4,s1
    11e6:	c00a8913          	addi	s2,s5,-1024 # 40010c00 <_eusrstack+0x2000bc00>
    11ea:	0807f793          	andi	a5,a5,128
    11ee:	00892823          	sw	s0,16(s2)
    11f2:	cb95                	beqz	a5,1226 <WS2812_write_byte+0x64>
    11f4:	451d                	li	a0,7
    11f6:	3f5d                	jal	11ac <WS2812_Delay>
    11f8:	450d                	li	a0,3
    11fa:	00892a23          	sw	s0,20(s2)
    11fe:	0485                	addi	s1,s1,1
    1200:	3775                	jal	11ac <WS2812_Delay>
    1202:	ff3490e3          	bne	s1,s3,11e2 <WS2812_write_byte+0x20>
    1206:	40f2                	lw	ra,28(sp)
    1208:	4462                	lw	s0,24(sp)
    120a:	6705                	lui	a4,0x1
    120c:	400117b7          	lui	a5,0x40011
    1210:	80070713          	addi	a4,a4,-2048 # 800 <__stack_size>
    1214:	c0e7aa23          	sw	a4,-1004(a5) # 40010c14 <_eusrstack+0x2000bc14>
    1218:	44d2                	lw	s1,20(sp)
    121a:	4942                	lw	s2,16(sp)
    121c:	49b2                	lw	s3,12(sp)
    121e:	4a22                	lw	s4,8(sp)
    1220:	4a92                	lw	s5,4(sp)
    1222:	6105                	addi	sp,sp,32
    1224:	8082                	ret
    1226:	450d                	li	a0,3
    1228:	3751                	jal	11ac <WS2812_Delay>
    122a:	4519                	li	a0,6
    122c:	00892a23          	sw	s0,20(s2)
    1230:	b7f9                	j	11fe <WS2812_write_byte+0x3c>

00001232 <LED_REG>:
    1232:	1101                	addi	sp,sp,-32
    1234:	ce06                	sw	ra,28(sp)
    1236:	c991                	beqz	a1,124a <LED_REG+0x18>
    1238:	faa00513          	li	a0,-86
    123c:	3759                	jal	11c2 <WS2812_write_byte>
    123e:	4505                	li	a0,1
    1240:	3749                	jal	11c2 <WS2812_write_byte>
    1242:	40f2                	lw	ra,28(sp)
    1244:	4501                	li	a0,0
    1246:	6105                	addi	sp,sp,32
    1248:	bfad                	j	11c2 <WS2812_write_byte>
    124a:	4501                	li	a0,0
    124c:	3f9d                	jal	11c2 <WS2812_write_byte>
    124e:	4501                	li	a0,0
    1250:	bfc5                	j	1240 <LED_REG+0xe>

00001252 <Debug_Out>:
    1252:	85aa                	mv	a1,a0
    1254:	4505                	li	a0,1
    1256:	ac6d                	j	1510 <UART_Send_String>

00001258 <Mode_Index>:
    1258:	00001737          	lui	a4,0x1
    125c:	25270713          	addi	a4,a4,594 # 1252 <Debug_Out>
    1260:	3ee1a823          	sw	a4,1008(gp) # 20000f10 <Mode_User>
    1264:	00003737          	lui	a4,0x3
    1268:	3f018793          	addi	a5,gp,1008 # 20000f10 <Mode_User>
    126c:	78e70713          	addi	a4,a4,1934 # 378e <SYS_Delay_us>
    1270:	c3d8                	sw	a4,4(a5)
    1272:	00004737          	lui	a4,0x4
    1276:	81c70713          	addi	a4,a4,-2020 # 381c <SYS_Delay_ms>
    127a:	c798                	sw	a4,8(a5)
    127c:	00004737          	lui	a4,0x4
    1280:	8a670713          	addi	a4,a4,-1882 # 38a6 <SYS_Delay_S>
    1284:	c7d8                	sw	a4,12(a5)
    1286:	00001737          	lui	a4,0x1
    128a:	33c70713          	addi	a4,a4,828 # 133c <Get_TIME>
    128e:	cbd8                	sw	a4,20(a5)
    1290:	00001737          	lui	a4,0x1
    1294:	31c70713          	addi	a4,a4,796 # 131c <Set_TIME>
    1298:	cb98                	sw	a4,16(a5)
    129a:	00001737          	lui	a4,0x1
    129e:	3bc70713          	addi	a4,a4,956 # 13bc <Get_Lose_Tiem>
    12a2:	cf98                	sw	a4,24(a5)
    12a4:	00001737          	lui	a4,0x1
    12a8:	17870713          	addi	a4,a4,376 # 1178 <LED_SET>
    12ac:	d3d8                	sw	a4,36(a5)
    12ae:	00001737          	lui	a4,0x1
    12b2:	23270713          	addi	a4,a4,562 # 1232 <LED_REG>
    12b6:	d798                	sw	a4,40(a5)
    12b8:	00001737          	lui	a4,0x1
    12bc:	15e70713          	addi	a4,a4,350 # 115e <BZZ_SET>
    12c0:	d7d8                	sw	a4,44(a5)
    12c2:	00001737          	lui	a4,0x1
    12c6:	4c870713          	addi	a4,a4,1224 # 14c8 <UART_Send_Data>
    12ca:	d398                	sw	a4,32(a5)
    12cc:	00001737          	lui	a4,0x1
    12d0:	51070713          	addi	a4,a4,1296 # 1510 <UART_Send_String>
    12d4:	cfd8                	sw	a4,28(a5)
    12d6:	00001737          	lui	a4,0x1
    12da:	53c70713          	addi	a4,a4,1340 # 153c <KEY_State>
    12de:	db98                	sw	a4,48(a5)
    12e0:	00001737          	lui	a4,0x1
    12e4:	3d818793          	addi	a5,gp,984 # 20000ef8 <Mode_Init>
    12e8:	31870713          	addi	a4,a4,792 # 1318 <Time_Init>
    12ec:	c3d8                	sw	a4,4(a5)
    12ee:	00001737          	lui	a4,0x1
    12f2:	3fc70713          	addi	a4,a4,1020 # 13fc <Uart_Init>
    12f6:	c798                	sw	a4,8(a5)
    12f8:	00001737          	lui	a4,0x1
    12fc:	17470713          	addi	a4,a4,372 # 1174 <LED_Init>
    1300:	c7d8                	sw	a4,12(a5)
    1302:	00001737          	lui	a4,0x1
    1306:	14470713          	addi	a4,a4,324 # 1144 <BZZ_Init>
    130a:	cb98                	sw	a4,16(a5)
    130c:	00001737          	lui	a4,0x1
    1310:	52e70713          	addi	a4,a4,1326 # 152e <KEY_Init>
    1314:	cbd8                	sw	a4,20(a5)
    1316:	8082                	ret

00001318 <Time_Init>:
    1318:	4440206f          	j	375c <Sys_Time_Init>

0000131c <Set_TIME>:
    131c:	1101                	addi	sp,sp,-32
    131e:	ce06                	sw	ra,28(sp)
    1320:	105020ef          	jal	ra,3c24 <Hourly_to_Seconds>
    1324:	200007b7          	lui	a5,0x20000
    1328:	3207a783          	lw	a5,800(a5) # 20000320 <SystemCoreClock>
    132c:	40f2                	lw	ra,28(sp)
    132e:	02f525b3          	mulhsu	a1,a0,a5
    1332:	6105                	addi	sp,sp,32
    1334:	02a78533          	mul	a0,a5,a0
    1338:	44c0206f          	j	3784 <SysTick_Reload>

0000133c <Get_TIME>:
    133c:	1101                	addi	sp,sp,-32
    133e:	ca26                	sw	s1,20(sp)
    1340:	200004b7          	lui	s1,0x20000
    1344:	e000f7b7          	lui	a5,0xe000f
    1348:	cc22                	sw	s0,24(sp)
    134a:	3204a403          	lw	s0,800(s1) # 20000320 <SystemCoreClock>
    134e:	4788                	lw	a0,8(a5)
    1350:	47cc                	lw	a1,12(a5)
    1352:	8622                	mv	a2,s0
    1354:	4681                	li	a3,0
    1356:	ce06                	sw	ra,28(sp)
    1358:	c84a                	sw	s2,16(sp)
    135a:	008030ef          	jal	ra,4362 <__udivdi3>
    135e:	000f47b7          	lui	a5,0xf4
    1362:	24078793          	addi	a5,a5,576 # f4240 <_data_lma+0xef070>
    1366:	892a                	mv	s2,a0
    1368:	02f45433          	divu	s0,s0,a5
    136c:	0f5020ef          	jal	ra,3c60 <Seconds_to_Hourly>
    1370:	c02a                	sw	a0,0(sp)
    1372:	6555                	lui	a0,0x15
    1374:	17f50513          	addi	a0,a0,383 # 1517f <_data_lma+0xffaf>
    1378:	0002a7b7          	lui	a5,0x2a
    137c:	c22e                	sw	a1,4(sp)
    137e:	954a                	add	a0,a0,s2
    1380:	2fe78793          	addi	a5,a5,766 # 2a2fe <_data_lma+0x2512e>
    1384:	00a7f763          	bgeu	a5,a0,1392 <Get_TIME+0x56>
    1388:	4501                	li	a0,0
    138a:	4581                	li	a1,0
    138c:	c002                	sw	zero,0(sp)
    138e:	c202                	sw	zero,4(sp)
    1390:	3771                	jal	131c <Set_TIME>
    1392:	e000f7b7          	lui	a5,0xe000f
    1396:	4788                	lw	a0,8(a5)
    1398:	3204a603          	lw	a2,800(s1)
    139c:	47cc                	lw	a1,12(a5)
    139e:	4681                	li	a3,0
    13a0:	35a030ef          	jal	ra,46fa <__umoddi3>
    13a4:	8622                	mv	a2,s0
    13a6:	4681                	li	a3,0
    13a8:	7bb020ef          	jal	ra,4362 <__udivdi3>
    13ac:	40f2                	lw	ra,28(sp)
    13ae:	4462                	lw	s0,24(sp)
    13b0:	85aa                	mv	a1,a0
    13b2:	44d2                	lw	s1,20(sp)
    13b4:	4502                	lw	a0,0(sp)
    13b6:	4942                	lw	s2,16(sp)
    13b8:	6105                	addi	sp,sp,32
    13ba:	8082                	ret

000013bc <Get_Lose_Tiem>:
    13bc:	7179                	addi	sp,sp,-48
    13be:	d606                	sw	ra,44(sp)
    13c0:	c42a                	sw	a0,8(sp)
    13c2:	c62e                	sw	a1,12(sp)
    13c4:	3fa5                	jal	133c <Get_TIME>
    13c6:	4732                	lw	a4,12(sp)
    13c8:	01055793          	srli	a5,a0,0x10
    13cc:	cc2a                	sw	a0,24(sp)
    13ce:	ce2e                	sw	a1,28(sp)
    13d0:	40e58533          	sub	a0,a1,a4
    13d4:	0ff7f793          	andi	a5,a5,255
    13d8:	00055563          	bgez	a0,13e2 <Get_Lose_Tiem+0x26>
    13dc:	17fd                	addi	a5,a5,-1
    13de:	0ff7f793          	andi	a5,a5,255
    13e2:	00a14703          	lbu	a4,10(sp)
    13e6:	50b2                	lw	ra,44(sp)
    13e8:	8f99                	sub	a5,a5,a4
    13ea:	000f4737          	lui	a4,0xf4
    13ee:	24070713          	addi	a4,a4,576 # f4240 <_data_lma+0xef070>
    13f2:	02e787b3          	mul	a5,a5,a4
    13f6:	6145                	addi	sp,sp,48
    13f8:	953e                	add	a0,a0,a5
    13fa:	8082                	ret

000013fc <Uart_Init>:
    13fc:	85c18793          	addi	a5,gp,-1956 # 2000037c <Data>
    1400:	872a                	mv	a4,a0
    1402:	42f1a223          	sw	a5,1060(gp) # 20000f44 <CV_UART>
    1406:	4785                	li	a5,1
    1408:	852e                	mv	a0,a1
    140a:	85b2                	mv	a1,a2
    140c:	00f70663          	beq	a4,a5,1418 <Uart_Init+0x1c>
    1410:	4789                	li	a5,2
    1412:	00f70563          	beq	a4,a5,141c <Uart_Init+0x20>
    1416:	8082                	ret
    1418:	4c20206f          	j	38da <Uart1_Init>
    141c:	5b20206f          	j	39ce <Uart2_Init>

00001420 <USART1_IRQHandler>:
    1420:	4505                	li	a0,1
    1422:	696020ef          	jal	ra,3ab8 <UART_RXD_Flag>
    1426:	c529                	beqz	a0,1470 <USART1_IRQHandler+0x50>
    1428:	4505                	li	a0,1
    142a:	6e2020ef          	jal	ra,3b0c <UART_RXD_Receive>
    142e:	4241a783          	lw	a5,1060(gp) # 20000f44 <CV_UART>
    1432:	22078703          	lb	a4,544(a5) # e000f220 <_eusrstack+0xc000a220>
    1436:	eb15                	bnez	a4,146a <USART1_IRQHandler+0x4a>
    1438:	20c7d683          	lhu	a3,524(a5)
    143c:	4705                	li	a4,1
    143e:	20e78823          	sb	a4,528(a5)
    1442:	00168713          	addi	a4,a3,1 # 10001 <_data_lma+0xae31>
    1446:	0742                	slli	a4,a4,0x10
    1448:	8341                	srli	a4,a4,0x10
    144a:	96be                	add	a3,a3,a5
    144c:	20e79623          	sh	a4,524(a5)
    1450:	22a680a3          	sb	a0,545(a3)
    1454:	1f400693          	li	a3,500
    1458:	00e6f563          	bgeu	a3,a4,1462 <USART1_IRQHandler+0x42>
    145c:	4709                	li	a4,2
    145e:	22e78023          	sb	a4,544(a5)
    1462:	22178713          	addi	a4,a5,545
    1466:	20e7aa23          	sw	a4,532(a5)
    146a:	4505                	li	a0,1
    146c:	67e020ef          	jal	ra,3aea <UART_RXD_Flag_Clear>
    1470:	30200073          	mret

00001474 <USART2_IRQHandler>:
    1474:	4509                	li	a0,2
    1476:	642020ef          	jal	ra,3ab8 <UART_RXD_Flag>
    147a:	c529                	beqz	a0,14c4 <USART2_IRQHandler+0x50>
    147c:	4509                	li	a0,2
    147e:	68e020ef          	jal	ra,3b0c <UART_RXD_Receive>
    1482:	4241a783          	lw	a5,1060(gp) # 20000f44 <CV_UART>
    1486:	42c78703          	lb	a4,1068(a5)
    148a:	eb15                	bnez	a4,14be <USART2_IRQHandler+0x4a>
    148c:	4187d683          	lhu	a3,1048(a5)
    1490:	4705                	li	a4,1
    1492:	40e78e23          	sb	a4,1052(a5)
    1496:	00168713          	addi	a4,a3,1
    149a:	0742                	slli	a4,a4,0x10
    149c:	8341                	srli	a4,a4,0x10
    149e:	96be                	add	a3,a3,a5
    14a0:	40e79c23          	sh	a4,1048(a5)
    14a4:	42a686a3          	sb	a0,1069(a3)
    14a8:	1f400693          	li	a3,500
    14ac:	00e6f563          	bgeu	a3,a4,14b6 <USART2_IRQHandler+0x42>
    14b0:	4709                	li	a4,2
    14b2:	42e78623          	sb	a4,1068(a5)
    14b6:	42d78713          	addi	a4,a5,1069
    14ba:	42e7a023          	sw	a4,1056(a5)
    14be:	4509                	li	a0,2
    14c0:	62a020ef          	jal	ra,3aea <UART_RXD_Flag_Clear>
    14c4:	30200073          	mret

000014c8 <UART_Send_Data>:
    14c8:	4789                	li	a5,2
    14ca:	04a7c163          	blt	a5,a0,150c <UART_Send_Data+0x44>
    14ce:	1141                	addi	sp,sp,-16
    14d0:	c226                	sw	s1,4(sp)
    14d2:	c606                	sw	ra,12(sp)
    14d4:	c422                	sw	s0,8(sp)
    14d6:	c04a                	sw	s2,0(sp)
    14d8:	1f400793          	li	a5,500
    14dc:	84ae                	mv	s1,a1
    14de:	00c7d463          	bge	a5,a2,14e6 <UART_Send_Data+0x1e>
    14e2:	1f400613          	li	a2,500
    14e6:	892a                	mv	s2,a0
    14e8:	00c58433          	add	s0,a1,a2
    14ec:	00849963          	bne	s1,s0,14fe <UART_Send_Data+0x36>
    14f0:	40b2                	lw	ra,12(sp)
    14f2:	4422                	lw	s0,8(sp)
    14f4:	4492                	lw	s1,4(sp)
    14f6:	4902                	lw	s2,0(sp)
    14f8:	4505                	li	a0,1
    14fa:	0141                	addi	sp,sp,16
    14fc:	8082                	ret
    14fe:	0004c583          	lbu	a1,0(s1)
    1502:	854a                	mv	a0,s2
    1504:	0485                	addi	s1,s1,1
    1506:	626020ef          	jal	ra,3b2c <UART_TXD_Send>
    150a:	b7cd                	j	14ec <UART_Send_Data+0x24>
    150c:	557d                	li	a0,-1
    150e:	8082                	ret

00001510 <UART_Send_String>:
    1510:	1101                	addi	sp,sp,-32
    1512:	cc22                	sw	s0,24(sp)
    1514:	842a                	mv	s0,a0
    1516:	852e                	mv	a0,a1
    1518:	ce06                	sw	ra,28(sp)
    151a:	c62e                	sw	a1,12(sp)
    151c:	622030ef          	jal	ra,4b3e <strlen>
    1520:	862a                	mv	a2,a0
    1522:	8522                	mv	a0,s0
    1524:	4462                	lw	s0,24(sp)
    1526:	45b2                	lw	a1,12(sp)
    1528:	40f2                	lw	ra,28(sp)
    152a:	6105                	addi	sp,sp,32
    152c:	bf71                	j	14c8 <UART_Send_Data>

0000152e <KEY_Init>:
    152e:	4785                	li	a5,1
    1530:	00f51563          	bne	a0,a5,153a <KEY_Init+0xc>
    1534:	852e                	mv	a0,a1
    1536:	09c0206f          	j	35d2 <KEY_GPIO_Init>
    153a:	8082                	ret

0000153c <KEY_State>:
    153c:	4785                	li	a5,1
    153e:	00f51763          	bne	a0,a5,154c <KEY_State+0x10>
    1542:	6589                	lui	a1,0x2
    1544:	40011537          	lui	a0,0x40011
    1548:	fa6ff06f          	j	cee <GPIO_ReadInputDataBit>
    154c:	4505                	li	a0,1
    154e:	8082                	ret

00001550 <Send_Agreement>:
    1550:	00054783          	lbu	a5,0(a0) # 40011000 <_eusrstack+0x2000c000>
    1554:	05a00713          	li	a4,90
    1558:	00f50923          	sb	a5,18(a0)
    155c:	0ce79263          	bne	a5,a4,1620 <Send_Agreement+0xd0>
    1560:	415c                	lw	a5,4(a0)
    1562:	1141                	addi	sp,sp,-16
    1564:	c606                	sw	ra,12(sp)
    1566:	c422                	sw	s0,8(sp)
    1568:	c226                	sw	s1,4(sp)
    156a:	c04a                	sw	s2,0(sp)
    156c:	0087d713          	srli	a4,a5,0x8
    1570:	00e50aa3          	sb	a4,21(a0)
    1574:	0107d713          	srli	a4,a5,0x10
    1578:	00e50a23          	sb	a4,20(a0)
    157c:	00a55703          	lhu	a4,10(a0)
    1580:	00f50b23          	sb	a5,22(a0)
    1584:	83e1                	srli	a5,a5,0x18
    1586:	00f509a3          	sb	a5,19(a0)
    158a:	00a55603          	lhu	a2,10(a0)
    158e:	00871793          	slli	a5,a4,0x8
    1592:	22254803          	lbu	a6,546(a0)
    1596:	8321                	srli	a4,a4,0x8
    1598:	8fd9                	or	a5,a5,a4
    159a:	07c2                	slli	a5,a5,0x10
    159c:	86ba                	mv	a3,a4
    159e:	83c1                	srli	a5,a5,0x10
    15a0:	0ff67713          	andi	a4,a2,255
    15a4:	06080863          	beqz	a6,1614 <Send_Agreement+0xc4>
    15a8:	00854703          	lbu	a4,8(a0)
    15ac:	00f51c23          	sh	a5,24(a0)
    15b0:	44a1                	li	s1,8
    15b2:	00e50ba3          	sb	a4,23(a0)
    15b6:	842a                	mv	s0,a0
    15b8:	892e                	mv	s2,a1
    15ba:	444c                	lw	a1,12(s0)
    15bc:	01248513          	addi	a0,s1,18
    15c0:	9522                	add	a0,a0,s0
    15c2:	4c6030ef          	jal	ra,4a88 <memcpy>
    15c6:	00a45783          	lhu	a5,10(s0)
    15ca:	00892703          	lw	a4,8(s2)
    15ce:	01340513          	addi	a0,s0,19
    15d2:	17fd                	addi	a5,a5,-1
    15d4:	97a6                	add	a5,a5,s1
    15d6:	01079593          	slli	a1,a5,0x10
    15da:	81c1                	srli	a1,a1,0x10
    15dc:	9702                	jalr	a4
    15de:	00a45583          	lhu	a1,10(s0)
    15e2:	00855713          	srli	a4,a0,0x8
    15e6:	94ae                	add	s1,s1,a1
    15e8:	009407b3          	add	a5,s0,s1
    15ec:	00a789a3          	sb	a0,19(a5)
    15f0:	00e78923          	sb	a4,18(a5)
    15f4:	00092783          	lw	a5,0(s2)
    15f8:	04c2                	slli	s1,s1,0x10
    15fa:	80c1                	srli	s1,s1,0x10
    15fc:	00248593          	addi	a1,s1,2
    1600:	01240513          	addi	a0,s0,18
    1604:	9782                	jalr	a5
    1606:	40b2                	lw	ra,12(sp)
    1608:	4422                	lw	s0,8(sp)
    160a:	4492                	lw	s1,4(sp)
    160c:	4902                	lw	s2,0(sp)
    160e:	4505                	li	a0,1
    1610:	0141                	addi	sp,sp,16
    1612:	8082                	ret
    1614:	00d50ba3          	sb	a3,23(a0)
    1618:	00e50c23          	sb	a4,24(a0)
    161c:	449d                	li	s1,7
    161e:	bf61                	j	15b6 <Send_Agreement+0x66>
    1620:	4501                	li	a0,0
    1622:	8082                	ret

00001624 <Pick_Agreement>:
    1624:	00055783          	lhu	a5,0(a0)
    1628:	46078063          	beqz	a5,1a88 <Pick_Agreement+0x464>
    162c:	7139                	addi	sp,sp,-64
    162e:	dc22                	sw	s0,56(sp)
    1630:	da26                	sw	s1,52(sp)
    1632:	d84a                	sw	s2,48(sp)
    1634:	84b2                	mv	s1,a2
    1636:	892a                	mv	s2,a0
    1638:	4679                	li	a2,30
    163a:	842e                	mv	s0,a1
    163c:	850a                	mv	a0,sp
    163e:	4581                	li	a1,0
    1640:	de06                	sw	ra,60(sp)
    1642:	d452                	sw	s4,40(sp)
    1644:	d256                	sw	s5,36(sp)
    1646:	8a36                	mv	s4,a3
    1648:	d64e                	sw	s3,44(sp)
    164a:	d05a                	sw	s6,32(sp)
    164c:	af5fe0ef          	jal	ra,140 <memset>
    1650:	00295783          	lhu	a5,2(s2)
    1654:	20000ab7          	lui	s5,0x20000
    1658:	00892503          	lw	a0,8(s2)
    165c:	024a8583          	lb	a1,36(s5) # 20000024 <Norm>
    1660:	461d                	li	a2,7
    1662:	953e                	add	a0,a0,a5
    1664:	5a4020ef          	jal	ra,3c08 <Find_Data>
    1668:	0ff57513          	andi	a0,a0,255
    166c:	024a8a93          	addi	s5,s5,36
    1670:	40050563          	beqz	a0,1a7a <Pick_Agreement+0x456>
    1674:	00295783          	lhu	a5,2(s2)
    1678:	00892983          	lw	s3,8(s2)
    167c:	48d8                	lw	a4,20(s1)
    167e:	17fd                	addi	a5,a5,-1
    1680:	97aa                	add	a5,a5,a0
    1682:	07c2                	slli	a5,a5,0x10
    1684:	83c1                	srli	a5,a5,0x10
    1686:	00f91123          	sh	a5,2(s2)
    168a:	00295783          	lhu	a5,2(s2)
    168e:	c7418b13          	addi	s6,gp,-908 # 20000794 <temp_time.3307>
    1692:	99be                	add	s3,s3,a5
    1694:	c7418793          	addi	a5,gp,-908 # 20000794 <temp_time.3307>
    1698:	cfd8                	sw	a4,28(a5)
    169a:	21a44703          	lbu	a4,538(s0)
    169e:	0127a023          	sw	s2,0(a5)
    16a2:	00095783          	lhu	a5,0(s2)
    16a6:	10071663          	bnez	a4,17b2 <Pick_Agreement+0x18e>
    16aa:	00295703          	lhu	a4,2(s2)
    16ae:	8f99                	sub	a5,a5,a4
    16b0:	471d                	li	a4,7
    16b2:	32f75763          	bge	a4,a5,19e0 <Pick_Agreement+0x3bc>
    16b6:	000a0863          	beqz	s4,16c6 <Pick_Agreement+0xa2>
    16ba:	40dc                	lw	a5,4(s1)
    16bc:	00005537          	lui	a0,0x5
    16c0:	c8050513          	addi	a0,a0,-896 # 4c80 <strlen+0x142>
    16c4:	9782                	jalr	a5
    16c6:	0009c783          	lbu	a5,0(s3)
    16ca:	4705                	li	a4,1
    16cc:	4695                	li	a3,5
    16ce:	00f40023          	sb	a5,0(s0)
    16d2:	4781                	li	a5,0
    16d4:	00e98633          	add	a2,s3,a4
    16d8:	00064603          	lbu	a2,0(a2) # 40021000 <_eusrstack+0x2001c000>
    16dc:	07a2                	slli	a5,a5,0x8
    16de:	0705                	addi	a4,a4,1
    16e0:	97b2                	add	a5,a5,a2
    16e2:	fed719e3          	bne	a4,a3,16d4 <Pick_Agreement+0xb0>
    16e6:	c05c                	sw	a5,4(s0)
    16e8:	01279713          	slli	a4,a5,0x12
    16ec:	06075c63          	bgez	a4,1764 <Pick_Agreement+0x140>
    16f0:	4785                	li	a5,1
    16f2:	22f40123          	sb	a5,546(s0)
    16f6:	0059c783          	lbu	a5,5(s3)
    16fa:	00f40423          	sb	a5,8(s0)
    16fe:	0069c783          	lbu	a5,6(s3)
    1702:	0079c703          	lbu	a4,7(s3)
    1706:	07a2                	slli	a5,a5,0x8
    1708:	97ba                	add	a5,a5,a4
    170a:	00f41523          	sh	a5,10(s0)
    170e:	47a1                	li	a5,8
    1710:	20f40d23          	sb	a5,538(s0)
    1714:	00a45703          	lhu	a4,10(s0)
    1718:	21a44783          	lbu	a5,538(s0)
    171c:	97ba                	add	a5,a5,a4
    171e:	0789                	addi	a5,a5,2
    1720:	20f42e23          	sw	a5,540(s0)
    1724:	0019c603          	lbu	a2,1(s3)
    1728:	22c40023          	sb	a2,544(s0)
    172c:	0029c683          	lbu	a3,2(s3)
    1730:	22d400a3          	sb	a3,545(s0)
    1734:	0039c783          	lbu	a5,3(s3)
    1738:	8791                	srai	a5,a5,0x4
    173a:	8b85                	andi	a5,a5,1
    173c:	22f401a3          	sb	a5,547(s0)
    1740:	0039c783          	lbu	a5,3(s3)
    1744:	8bbd                	andi	a5,a5,15
    1746:	22f40223          	sb	a5,548(s0)
    174a:	0049c783          	lbu	a5,4(s3)
    174e:	22f402a3          	sb	a5,549(s0)
    1752:	220ac783          	lbu	a5,544(s5)
    1756:	02c7f563          	bgeu	a5,a2,1780 <Pick_Agreement+0x15c>
    175a:	10000793          	li	a5,256
    175e:	22f41323          	sh	a5,550(s0)
    1762:	a815                	j	1796 <Pick_Agreement+0x172>
    1764:	22040123          	sb	zero,546(s0)
    1768:	00040423          	sb	zero,8(s0)
    176c:	0059c783          	lbu	a5,5(s3)
    1770:	0069c703          	lbu	a4,6(s3)
    1774:	07a2                	slli	a5,a5,0x8
    1776:	97ba                	add	a5,a5,a4
    1778:	00f41523          	sh	a5,10(s0)
    177c:	479d                	li	a5,7
    177e:	bf49                	j	1710 <Pick_Agreement+0xec>
    1780:	221ac783          	lbu	a5,545(s5)
    1784:	00d7f563          	bgeu	a5,a3,178e <Pick_Agreement+0x16a>
    1788:	10100793          	li	a5,257
    178c:	bfc9                	j	175e <Pick_Agreement+0x13a>
    178e:	00aad783          	lhu	a5,10(s5)
    1792:	00f77d63          	bgeu	a4,a5,17ac <Pick_Agreement+0x188>
    1796:	4505                	li	a0,1
    1798:	50f2                	lw	ra,60(sp)
    179a:	5462                	lw	s0,56(sp)
    179c:	54d2                	lw	s1,52(sp)
    179e:	5942                	lw	s2,48(sp)
    17a0:	59b2                	lw	s3,44(sp)
    17a2:	5a22                	lw	s4,40(sp)
    17a4:	5a92                	lw	s5,36(sp)
    17a6:	5b02                	lw	s6,32(sp)
    17a8:	6121                	addi	sp,sp,64
    17aa:	8082                	ret
    17ac:	10900793          	li	a5,265
    17b0:	b77d                	j	175e <Pick_Agreement+0x13a>
    17b2:	00295703          	lhu	a4,2(s2)
    17b6:	8f99                	sub	a5,a5,a4
    17b8:	21c42703          	lw	a4,540(s0)
    17bc:	22e7c263          	blt	a5,a4,19e0 <Pick_Agreement+0x3bc>
    17c0:	000a0863          	beqz	s4,17d0 <Pick_Agreement+0x1ac>
    17c4:	40dc                	lw	a5,4(s1)
    17c6:	00005537          	lui	a0,0x5
    17ca:	c8850513          	addi	a0,a0,-888 # 4c88 <strlen+0x14a>
    17ce:	9782                	jalr	a5
    17d0:	21a44583          	lbu	a1,538(s0)
    17d4:	00a45603          	lhu	a2,10(s0)
    17d8:	01240793          	addi	a5,s0,18
    17dc:	95ce                	add	a1,a1,s3
    17de:	853e                	mv	a0,a5
    17e0:	2a8030ef          	jal	ra,4a88 <memcpy>
    17e4:	21c42583          	lw	a1,540(s0)
    17e8:	c448                	sw	a0,12(s0)
    17ea:	00198513          	addi	a0,s3,1
    17ee:	00b98733          	add	a4,s3,a1
    17f2:	ffe74783          	lbu	a5,-2(a4)
    17f6:	fff74703          	lbu	a4,-1(a4)
    17fa:	15f5                	addi	a1,a1,-3
    17fc:	07a2                	slli	a5,a5,0x8
    17fe:	97ba                	add	a5,a5,a4
    1800:	00f41823          	sh	a5,16(s0)
    1804:	449c                	lw	a5,8(s1)
    1806:	05c2                	slli	a1,a1,0x10
    1808:	81c1                	srli	a1,a1,0x10
    180a:	9782                	jalr	a5
    180c:	01045783          	lhu	a5,16(s0)
    1810:	220403a3          	sb	zero,551(s0)
    1814:	8b2a                	mv	s6,a0
    1816:	00a78663          	beq	a5,a0,1822 <Pick_Agreement+0x1fe>
    181a:	10300793          	li	a5,259
    181e:	22f41323          	sh	a5,550(s0)
    1822:	0019c703          	lbu	a4,1(s3)
    1826:	220ac783          	lbu	a5,544(s5)
    182a:	00f71663          	bne	a4,a5,1836 <Pick_Agreement+0x212>
    182e:	04600793          	li	a5,70
    1832:	20f40d23          	sb	a5,538(s0)
    1836:	00295703          	lhu	a4,2(s2)
    183a:	21c42783          	lw	a5,540(s0)
    183e:	97ba                	add	a5,a5,a4
    1840:	07c2                	slli	a5,a5,0x10
    1842:	83c1                	srli	a5,a5,0x10
    1844:	00f91123          	sh	a5,2(s2)
    1848:	f40a07e3          	beqz	s4,1796 <Pick_Agreement+0x172>
    184c:	000055b7          	lui	a1,0x5
    1850:	8652                	mv	a2,s4
    1852:	c9058593          	addi	a1,a1,-880 # 4c90 <strlen+0x152>
    1856:	850a                	mv	a0,sp
    1858:	28f020ef          	jal	ra,42e6 <sprintf>
    185c:	40dc                	lw	a5,4(s1)
    185e:	850a                	mv	a0,sp
    1860:	9782                	jalr	a5
    1862:	22744683          	lbu	a3,551(s0)
    1866:	4705                	li	a4,1
    1868:	40dc                	lw	a5,4(s1)
    186a:	14e69463          	bne	a3,a4,19b2 <Pick_Agreement+0x38e>
    186e:	00005537          	lui	a0,0x5
    1872:	ca850513          	addi	a0,a0,-856 # 4ca8 <strlen+0x16a>
    1876:	9782                	jalr	a5
    1878:	000055b7          	lui	a1,0x5
    187c:	865a                	mv	a2,s6
    187e:	cc058593          	addi	a1,a1,-832 # 4cc0 <strlen+0x182>
    1882:	850a                	mv	a0,sp
    1884:	263020ef          	jal	ra,42e6 <sprintf>
    1888:	40dc                	lw	a5,4(s1)
    188a:	850a                	mv	a0,sp
    188c:	9782                	jalr	a5
    188e:	00044683          	lbu	a3,0(s0)
    1892:	00005937          	lui	s2,0x5
    1896:	cf490593          	addi	a1,s2,-780 # 4cf4 <strlen+0x1b6>
    189a:	4601                	li	a2,0
    189c:	850a                	mv	a0,sp
    189e:	249020ef          	jal	ra,42e6 <sprintf>
    18a2:	40dc                	lw	a5,4(s1)
    18a4:	850a                	mv	a0,sp
    18a6:	000059b7          	lui	s3,0x5
    18aa:	9782                	jalr	a5
    18ac:	4054                	lw	a3,4(s0)
    18ae:	cf490593          	addi	a1,s2,-780
    18b2:	4605                	li	a2,1
    18b4:	850a                	mv	a0,sp
    18b6:	231020ef          	jal	ra,42e6 <sprintf>
    18ba:	40dc                	lw	a5,4(s1)
    18bc:	850a                	mv	a0,sp
    18be:	9782                	jalr	a5
    18c0:	00844683          	lbu	a3,8(s0)
    18c4:	cf490593          	addi	a1,s2,-780
    18c8:	4609                	li	a2,2
    18ca:	850a                	mv	a0,sp
    18cc:	21b020ef          	jal	ra,42e6 <sprintf>
    18d0:	40dc                	lw	a5,4(s1)
    18d2:	850a                	mv	a0,sp
    18d4:	9782                	jalr	a5
    18d6:	00a45683          	lhu	a3,10(s0)
    18da:	cf490593          	addi	a1,s2,-780
    18de:	460d                	li	a2,3
    18e0:	850a                	mv	a0,sp
    18e2:	205020ef          	jal	ra,42e6 <sprintf>
    18e6:	40dc                	lw	a5,4(s1)
    18e8:	850a                	mv	a0,sp
    18ea:	4901                	li	s2,0
    18ec:	9782                	jalr	a5
    18ee:	00a45783          	lhu	a5,10(s0)
    18f2:	0cf96563          	bltu	s2,a5,19bc <Pick_Agreement+0x398>
    18f6:	01045603          	lhu	a2,16(s0)
    18fa:	000055b7          	lui	a1,0x5
    18fe:	d1458593          	addi	a1,a1,-748 # 4d14 <strlen+0x1d6>
    1902:	850a                	mv	a0,sp
    1904:	1e3020ef          	jal	ra,42e6 <sprintf>
    1908:	40dc                	lw	a5,4(s1)
    190a:	850a                	mv	a0,sp
    190c:	9782                	jalr	a5
    190e:	4789                	li	a5,2
    1910:	e8fa13e3          	bne	s4,a5,1796 <Pick_Agreement+0x172>
    1914:	40dc                	lw	a5,4(s1)
    1916:	00005537          	lui	a0,0x5
    191a:	d2450513          	addi	a0,a0,-732 # 4d24 <strlen+0x1e6>
    191e:	9782                	jalr	a5
    1920:	22044603          	lbu	a2,544(s0)
    1924:	000055b7          	lui	a1,0x5
    1928:	d3858593          	addi	a1,a1,-712 # 4d38 <strlen+0x1fa>
    192c:	850a                	mv	a0,sp
    192e:	1b9020ef          	jal	ra,42e6 <sprintf>
    1932:	40dc                	lw	a5,4(s1)
    1934:	850a                	mv	a0,sp
    1936:	9782                	jalr	a5
    1938:	22144603          	lbu	a2,545(s0)
    193c:	000055b7          	lui	a1,0x5
    1940:	d4858593          	addi	a1,a1,-696 # 4d48 <strlen+0x20a>
    1944:	850a                	mv	a0,sp
    1946:	1a1020ef          	jal	ra,42e6 <sprintf>
    194a:	40dc                	lw	a5,4(s1)
    194c:	850a                	mv	a0,sp
    194e:	9782                	jalr	a5
    1950:	22244603          	lbu	a2,546(s0)
    1954:	000055b7          	lui	a1,0x5
    1958:	d5858593          	addi	a1,a1,-680 # 4d58 <strlen+0x21a>
    195c:	850a                	mv	a0,sp
    195e:	189020ef          	jal	ra,42e6 <sprintf>
    1962:	40dc                	lw	a5,4(s1)
    1964:	850a                	mv	a0,sp
    1966:	9782                	jalr	a5
    1968:	22344603          	lbu	a2,547(s0)
    196c:	000055b7          	lui	a1,0x5
    1970:	d6858593          	addi	a1,a1,-664 # 4d68 <strlen+0x22a>
    1974:	850a                	mv	a0,sp
    1976:	171020ef          	jal	ra,42e6 <sprintf>
    197a:	40dc                	lw	a5,4(s1)
    197c:	850a                	mv	a0,sp
    197e:	9782                	jalr	a5
    1980:	22444603          	lbu	a2,548(s0)
    1984:	000055b7          	lui	a1,0x5
    1988:	d7858593          	addi	a1,a1,-648 # 4d78 <strlen+0x23a>
    198c:	850a                	mv	a0,sp
    198e:	159020ef          	jal	ra,42e6 <sprintf>
    1992:	40dc                	lw	a5,4(s1)
    1994:	850a                	mv	a0,sp
    1996:	9782                	jalr	a5
    1998:	22544603          	lbu	a2,549(s0)
    199c:	000055b7          	lui	a1,0x5
    19a0:	d8858593          	addi	a1,a1,-632 # 4d88 <strlen+0x24a>
    19a4:	850a                	mv	a0,sp
    19a6:	141020ef          	jal	ra,42e6 <sprintf>
    19aa:	40dc                	lw	a5,4(s1)
    19ac:	850a                	mv	a0,sp
    19ae:	9782                	jalr	a5
    19b0:	b3dd                	j	1796 <Pick_Agreement+0x172>
    19b2:	00005537          	lui	a0,0x5
    19b6:	cd450513          	addi	a0,a0,-812 # 4cd4 <strlen+0x196>
    19ba:	bdc9                	j	188c <Pick_Agreement+0x268>
    19bc:	445c                	lw	a5,12(s0)
    19be:	864a                	mv	a2,s2
    19c0:	d0098593          	addi	a1,s3,-768 # 4d00 <strlen+0x1c2>
    19c4:	97ca                	add	a5,a5,s2
    19c6:	0007c683          	lbu	a3,0(a5)
    19ca:	850a                	mv	a0,sp
    19cc:	0905                	addi	s2,s2,1
    19ce:	119020ef          	jal	ra,42e6 <sprintf>
    19d2:	40dc                	lw	a5,4(s1)
    19d4:	850a                	mv	a0,sp
    19d6:	0942                	slli	s2,s2,0x10
    19d8:	9782                	jalr	a5
    19da:	01095913          	srli	s2,s2,0x10
    19de:	bf01                	j	18ee <Pick_Agreement+0x2ca>
    19e0:	4789                	li	a5,2
    19e2:	00fb0723          	sb	a5,14(s6)
    19e6:	489c                	lw	a5,16(s1)
    19e8:	c7418513          	addi	a0,gp,-908 # 20000794 <temp_time.3307>
    19ec:	9782                	jalr	a5
    19ee:	009b4783          	lbu	a5,9(s6)
    19f2:	07e2                	slli	a5,a5,0x18
    19f4:	87e1                	srai	a5,a5,0x18
    19f6:	da0780e3          	beqz	a5,1796 <Pick_Agreement+0x172>
    19fa:	000a0863          	beqz	s4,1a0a <Pick_Agreement+0x3e6>
    19fe:	40dc                	lw	a5,4(s1)
    1a00:	00005537          	lui	a0,0x5
    1a04:	d9450513          	addi	a0,a0,-620 # 4d94 <strlen+0x256>
    1a08:	9782                	jalr	a5
    1a0a:	00295703          	lhu	a4,2(s2)
    1a0e:	00095783          	lhu	a5,0(s2)
    1a12:	8f99                	sub	a5,a5,a4
    1a14:	4719                	li	a4,6
    1a16:	02f75a63          	bge	a4,a5,1a4a <Pick_Agreement+0x426>
    1a1a:	000a0863          	beqz	s4,1a2a <Pick_Agreement+0x406>
    1a1e:	40dc                	lw	a5,4(s1)
    1a20:	00005537          	lui	a0,0x5
    1a24:	d9c50513          	addi	a0,a0,-612 # 4d9c <strlen+0x25e>
    1a28:	9782                	jalr	a5
    1a2a:	00295783          	lhu	a5,2(s2)
    1a2e:	0785                	addi	a5,a5,1
    1a30:	07c2                	slli	a5,a5,0x10
    1a32:	83c1                	srli	a5,a5,0x10
    1a34:	00f91123          	sh	a5,2(s2)
    1a38:	10800793          	li	a5,264
    1a3c:	22f41323          	sh	a5,550(s0)
    1a40:	04600793          	li	a5,70
    1a44:	20f40d23          	sb	a5,538(s0)
    1a48:	b3b9                	j	1796 <Pick_Agreement+0x172>
    1a4a:	000a0863          	beqz	s4,1a5a <Pick_Agreement+0x436>
    1a4e:	40dc                	lw	a5,4(s1)
    1a50:	00005537          	lui	a0,0x5
    1a54:	da850513          	addi	a0,a0,-600 # 4da8 <strlen+0x26a>
    1a58:	9782                	jalr	a5
    1a5a:	0019c703          	lbu	a4,1(s3)
    1a5e:	220ac783          	lbu	a5,544(s5)
    1a62:	00f71a63          	bne	a4,a5,1a76 <Pick_Agreement+0x452>
    1a66:	10800793          	li	a5,264
    1a6a:	22f41323          	sh	a5,550(s0)
    1a6e:	04600793          	li	a5,70
    1a72:	20f40d23          	sb	a5,538(s0)
    1a76:	000b04a3          	sb	zero,9(s6)
    1a7a:	4651                	li	a2,20
    1a7c:	4581                	li	a1,0
    1a7e:	854a                	mv	a0,s2
    1a80:	ec0fe0ef          	jal	ra,140 <memset>
    1a84:	4501                	li	a0,0
    1a86:	bb09                	j	1798 <Pick_Agreement+0x174>
    1a88:	4501                	li	a0,0
    1a8a:	8082                	ret

00001a8c <_write>:
    1a8c:	1101                	addi	sp,sp,-32
    1a8e:	ca26                	sw	s1,20(sp)
    1a90:	400144b7          	lui	s1,0x40014
    1a94:	cc22                	sw	s0,24(sp)
    1a96:	c84a                	sw	s2,16(sp)
    1a98:	c64e                	sw	s3,12(sp)
    1a9a:	ce06                	sw	ra,28(sp)
    1a9c:	89ae                	mv	s3,a1
    1a9e:	8932                	mv	s2,a2
    1aa0:	4401                	li	s0,0
    1aa2:	80048493          	addi	s1,s1,-2048 # 40013800 <_eusrstack+0x2000e800>
    1aa6:	01244a63          	blt	s0,s2,1aba <_write+0x2e>
    1aaa:	40f2                	lw	ra,28(sp)
    1aac:	4462                	lw	s0,24(sp)
    1aae:	854a                	mv	a0,s2
    1ab0:	44d2                	lw	s1,20(sp)
    1ab2:	4942                	lw	s2,16(sp)
    1ab4:	49b2                	lw	s3,12(sp)
    1ab6:	6105                	addi	sp,sp,32
    1ab8:	8082                	ret
    1aba:	04000593          	li	a1,64
    1abe:	8526                	mv	a0,s1
    1ac0:	e26ff0ef          	jal	ra,10e6 <USART_GetFlagStatus>
    1ac4:	d97d                	beqz	a0,1aba <_write+0x2e>
    1ac6:	008987b3          	add	a5,s3,s0
    1aca:	00078583          	lb	a1,0(a5)
    1ace:	8526                	mv	a0,s1
    1ad0:	0405                	addi	s0,s0,1
    1ad2:	05c2                	slli	a1,a1,0x10
    1ad4:	81c1                	srli	a1,a1,0x10
    1ad6:	dfcff0ef          	jal	ra,10d2 <USART_SendData>
    1ada:	b7f1                	j	1aa6 <_write+0x1a>

00001adc <Standard_GetConfiguration>:
    1adc:	1141                	addi	sp,sp,-16
    1ade:	c422                	sw	s0,8(sp)
    1ae0:	c606                	sw	ra,12(sp)
    1ae2:	e911                	bnez	a0,1af6 <Standard_GetConfiguration+0x1a>
    1ae4:	4581a783          	lw	a5,1112(gp) # 20000f78 <pInformation>
    1ae8:	4705                	li	a4,1
    1aea:	00e79823          	sh	a4,16(a5)
    1aee:	40b2                	lw	ra,12(sp)
    1af0:	4422                	lw	s0,8(sp)
    1af2:	0141                	addi	sp,sp,16
    1af4:	8082                	ret
    1af6:	4541a783          	lw	a5,1108(gp) # 20000f74 <pUser_Standard_Requests>
    1afa:	439c                	lw	a5,0(a5)
    1afc:	9782                	jalr	a5
    1afe:	4581a503          	lw	a0,1112(gp) # 20000f78 <pInformation>
    1b02:	0529                	addi	a0,a0,10
    1b04:	b7ed                	j	1aee <Standard_GetConfiguration+0x12>

00001b06 <Standard_GetInterface>:
    1b06:	1141                	addi	sp,sp,-16
    1b08:	c422                	sw	s0,8(sp)
    1b0a:	c606                	sw	ra,12(sp)
    1b0c:	e911                	bnez	a0,1b20 <Standard_GetInterface+0x1a>
    1b0e:	4581a783          	lw	a5,1112(gp) # 20000f78 <pInformation>
    1b12:	4705                	li	a4,1
    1b14:	00e79823          	sh	a4,16(a5)
    1b18:	40b2                	lw	ra,12(sp)
    1b1a:	4422                	lw	s0,8(sp)
    1b1c:	0141                	addi	sp,sp,16
    1b1e:	8082                	ret
    1b20:	4541a783          	lw	a5,1108(gp) # 20000f74 <pUser_Standard_Requests>
    1b24:	479c                	lw	a5,8(a5)
    1b26:	9782                	jalr	a5
    1b28:	4581a503          	lw	a0,1112(gp) # 20000f78 <pInformation>
    1b2c:	0531                	addi	a0,a0,12
    1b2e:	b7ed                	j	1b18 <Standard_GetInterface+0x12>

00001b30 <Standard_GetStatus>:
    1b30:	4581a703          	lw	a4,1112(gp) # 20000f78 <pInformation>
    1b34:	e509                	bnez	a0,1b3e <Standard_GetStatus+0xe>
    1b36:	4789                	li	a5,2
    1b38:	00f71823          	sh	a5,16(a4)
    1b3c:	8082                	ret
    1b3e:	1141                	addi	sp,sp,-16
    1b40:	c422                	sw	s0,8(sp)
    1b42:	c606                	sw	ra,12(sp)
    1b44:	42019423          	sh	zero,1064(gp) # 20000f48 <StatusInfo>
    1b48:	00074783          	lbu	a5,0(a4)
    1b4c:	842a                	mv	s0,a0
    1b4e:	07f7f793          	andi	a5,a5,127
    1b52:	ef95                	bnez	a5,1b8e <Standard_GetStatus+0x5e>
    1b54:	00974703          	lbu	a4,9(a4)
    1b58:	02077793          	andi	a5,a4,32
    1b5c:	c781                	beqz	a5,1b64 <Standard_GetStatus+0x34>
    1b5e:	4789                	li	a5,2
    1b60:	42f18423          	sb	a5,1064(gp) # 20000f48 <StatusInfo>
    1b64:	04077713          	andi	a4,a4,64
    1b68:	4281c783          	lbu	a5,1064(gp) # 20000f48 <StatusInfo>
    1b6c:	cf19                	beqz	a4,1b8a <Standard_GetStatus+0x5a>
    1b6e:	0017e793          	ori	a5,a5,1
    1b72:	42f18423          	sb	a5,1064(gp) # 20000f48 <StatusInfo>
    1b76:	4541a783          	lw	a5,1108(gp) # 20000f74 <pUser_Standard_Requests>
    1b7a:	4b9c                	lw	a5,16(a5)
    1b7c:	9782                	jalr	a5
    1b7e:	42818513          	addi	a0,gp,1064 # 20000f48 <StatusInfo>
    1b82:	40b2                	lw	ra,12(sp)
    1b84:	4422                	lw	s0,8(sp)
    1b86:	0141                	addi	sp,sp,16
    1b88:	8082                	ret
    1b8a:	9bf9                	andi	a5,a5,-2
    1b8c:	b7dd                	j	1b72 <Standard_GetStatus+0x42>
    1b8e:	4685                	li	a3,1
    1b90:	42818513          	addi	a0,gp,1064 # 20000f48 <StatusInfo>
    1b94:	fed787e3          	beq	a5,a3,1b82 <Standard_GetStatus+0x52>
    1b98:	4689                	li	a3,2
    1b9a:	4501                	li	a0,0
    1b9c:	fed793e3          	bne	a5,a3,1b82 <Standard_GetStatus+0x52>
    1ba0:	00574703          	lbu	a4,5(a4)
    1ba4:	400066b7          	lui	a3,0x40006
    1ba8:	c0068693          	addi	a3,a3,-1024 # 40005c00 <_eusrstack+0x20000c00>
    1bac:	00f77793          	andi	a5,a4,15
    1bb0:	078a                	slli	a5,a5,0x2
    1bb2:	97b6                	add	a5,a5,a3
    1bb4:	0762                	slli	a4,a4,0x18
    1bb6:	439c                	lw	a5,0(a5)
    1bb8:	8761                	srai	a4,a4,0x18
    1bba:	00075963          	bgez	a4,1bcc <Standard_GetStatus+0x9c>
    1bbe:	0307f793          	andi	a5,a5,48
    1bc2:	4741                	li	a4,16
    1bc4:	fae799e3          	bne	a5,a4,1b76 <Standard_GetStatus+0x46>
    1bc8:	4785                	li	a5,1
    1bca:	b765                	j	1b72 <Standard_GetStatus+0x42>
    1bcc:	670d                	lui	a4,0x3
    1bce:	8ff9                	and	a5,a5,a4
    1bd0:	6705                	lui	a4,0x1
    1bd2:	bfcd                	j	1bc4 <Standard_GetStatus+0x94>

00001bd4 <DataStageIn>:
    1bd4:	1101                	addi	sp,sp,-32
    1bd6:	ca26                	sw	s1,20(sp)
    1bd8:	4581a483          	lw	s1,1112(gp) # 20000f78 <pInformation>
    1bdc:	cc22                	sw	s0,24(sp)
    1bde:	c64e                	sw	s3,12(sp)
    1be0:	0104d403          	lhu	s0,16(s1)
    1be4:	c452                	sw	s4,8(sp)
    1be6:	ce06                	sw	ra,28(sp)
    1be8:	c84a                	sw	s2,16(sp)
    1bea:	c256                	sw	s5,4(sp)
    1bec:	8a3e                	mv	s4,a5
    1bee:	e035                	bnez	s0,1c52 <DataStageIn+0x7e>
    1bf0:	0084c703          	lbu	a4,8(s1)
    1bf4:	4791                	li	a5,4
    1bf6:	04f71e63          	bne	a4,a5,1c52 <DataStageIn+0x7e>
    1bfa:	82c18713          	addi	a4,gp,-2004 # 2000034c <Data_Mul_MaxPacketSize>
    1bfe:	4314                	lw	a3,0(a4)
    1c00:	4785                	li	a5,1
    1c02:	04f69363          	bne	a3,a5,1c48 <DataStageIn+0x74>
    1c06:	400067b7          	lui	a5,0x40006
    1c0a:	c507a783          	lw	a5,-944(a5) # 40005c50 <_eusrstack+0x20000c50>
    1c0e:	200036b7          	lui	a3,0x20003
    1c12:	0689                	addi	a3,a3,2
    1c14:	07c2                	slli	a5,a5,0x10
    1c16:	83c1                	srli	a5,a5,0x10
    1c18:	97b6                	add	a5,a5,a3
    1c1a:	0786                	slli	a5,a5,0x1
    1c1c:	0007a023          	sw	zero,0(a5)
    1c20:	03000793          	li	a5,48
    1c24:	46f19023          	sh	a5,1120(gp) # 20000f80 <SaveTState>
    1c28:	00072023          	sw	zero,0(a4) # 1000 <USART_Init+0x58>
    1c2c:	4911                	li	s2,4
    1c2e:	4581a783          	lw	a5,1112(gp) # 20000f78 <pInformation>
    1c32:	01278423          	sb	s2,8(a5)
    1c36:	40f2                	lw	ra,28(sp)
    1c38:	4462                	lw	s0,24(sp)
    1c3a:	44d2                	lw	s1,20(sp)
    1c3c:	4942                	lw	s2,16(sp)
    1c3e:	49b2                	lw	s3,12(sp)
    1c40:	4a22                	lw	s4,8(sp)
    1c42:	4a92                	lw	s5,4(sp)
    1c44:	6105                	addi	sp,sp,32
    1c46:	8082                	ret
    1c48:	47c1                	li	a5,16
    1c4a:	46f19023          	sh	a5,1120(gp) # 20000f80 <SaveTState>
    1c4e:	491d                	li	s2,7
    1c50:	bff9                	j	1c2e <DataStageIn+0x5a>
    1c52:	0144d783          	lhu	a5,20(s1)
    1c56:	4911                	li	s2,4
    1c58:	0087f363          	bgeu	a5,s0,1c5e <DataStageIn+0x8a>
    1c5c:	4909                	li	s2,2
    1c5e:	0087f363          	bgeu	a5,s0,1c64 <DataStageIn+0x90>
    1c62:	843e                	mv	s0,a5
    1c64:	4c9c                	lw	a5,24(s1)
    1c66:	0442                	slli	s0,s0,0x10
    1c68:	8041                	srli	s0,s0,0x10
    1c6a:	8522                	mv	a0,s0
    1c6c:	9782                	jalr	a5
    1c6e:	8aaa                	mv	s5,a0
    1c70:	4501                	li	a0,0
    1c72:	617000ef          	jal	ra,2a88 <GetEPTxAddr>
    1c76:	8622                	mv	a2,s0
    1c78:	85aa                	mv	a1,a0
    1c7a:	8556                	mv	a0,s5
    1c7c:	3a9000ef          	jal	ra,2824 <UserToPMABufferCopy>
    1c80:	85a2                	mv	a1,s0
    1c82:	4501                	li	a0,0
    1c84:	643000ef          	jal	ra,2ac6 <SetEPTxCount>
    1c88:	0104d783          	lhu	a5,16(s1)
    1c8c:	670d                	lui	a4,0x3
    1c8e:	8f81                	sub	a5,a5,s0
    1c90:	00f49823          	sh	a5,16(s1)
    1c94:	0124d783          	lhu	a5,18(s1)
    1c98:	943e                	add	s0,s0,a5
    1c9a:	03000793          	li	a5,48
    1c9e:	46f19023          	sh	a5,1120(gp) # 20000f80 <SaveTState>
    1ca2:	00849923          	sh	s0,18(s1)
    1ca6:	44e19f23          	sh	a4,1118(gp) # 20000f7e <SaveRState>
    1caa:	b751                	j	1c2e <DataStageIn+0x5a>

00001cac <Standard_SetConfiguration>:
    1cac:	4581a783          	lw	a5,1112(gp) # 20000f78 <pInformation>
    1cb0:	8191c683          	lbu	a3,-2023(gp) # 20000339 <Device_Table+0x1>
    1cb4:	0037c703          	lbu	a4,3(a5)
    1cb8:	4509                	li	a0,2
    1cba:	02e6e463          	bltu	a3,a4,1ce2 <Standard_SetConfiguration+0x36>
    1cbe:	0027c683          	lbu	a3,2(a5)
    1cc2:	e285                	bnez	a3,1ce2 <Standard_SetConfiguration+0x36>
    1cc4:	0047d683          	lhu	a3,4(a5)
    1cc8:	ee89                	bnez	a3,1ce2 <Standard_SetConfiguration+0x36>
    1cca:	1141                	addi	sp,sp,-16
    1ccc:	c606                	sw	ra,12(sp)
    1cce:	00e78523          	sb	a4,10(a5)
    1cd2:	4541a783          	lw	a5,1108(gp) # 20000f74 <pUser_Standard_Requests>
    1cd6:	43dc                	lw	a5,4(a5)
    1cd8:	9782                	jalr	a5
    1cda:	40b2                	lw	ra,12(sp)
    1cdc:	4501                	li	a0,0
    1cde:	0141                	addi	sp,sp,16
    1ce0:	8082                	ret
    1ce2:	8082                	ret

00001ce4 <Standard_SetInterface>:
    1ce4:	1101                	addi	sp,sp,-32
    1ce6:	cc22                	sw	s0,24(sp)
    1ce8:	4581a783          	lw	a5,1112(gp) # 20000f78 <pInformation>
    1cec:	4301a703          	lw	a4,1072(gp) # 20000f50 <pProperty>
    1cf0:	ce06                	sw	ra,28(sp)
    1cf2:	0037c583          	lbu	a1,3(a5)
    1cf6:	4f18                	lw	a4,24(a4)
    1cf8:	0057c503          	lbu	a0,5(a5)
    1cfc:	9702                	jalr	a4
    1cfe:	4581a783          	lw	a5,1112(gp) # 20000f78 <pInformation>
    1d02:	00a7c703          	lbu	a4,10(a5)
    1d06:	cf05                	beqz	a4,1d3e <Standard_SetInterface+0x5a>
    1d08:	c62a                	sw	a0,12(sp)
    1d0a:	e915                	bnez	a0,1d3e <Standard_SetInterface+0x5a>
    1d0c:	0047c703          	lbu	a4,4(a5)
    1d10:	e71d                	bnez	a4,1d3e <Standard_SetInterface+0x5a>
    1d12:	0027c783          	lbu	a5,2(a5)
    1d16:	e785                	bnez	a5,1d3e <Standard_SetInterface+0x5a>
    1d18:	4541a783          	lw	a5,1108(gp) # 20000f74 <pUser_Standard_Requests>
    1d1c:	47dc                	lw	a5,12(a5)
    1d1e:	9782                	jalr	a5
    1d20:	4581a783          	lw	a5,1112(gp) # 20000f78 <pInformation>
    1d24:	4532                	lw	a0,12(sp)
    1d26:	0057c703          	lbu	a4,5(a5)
    1d2a:	00e785a3          	sb	a4,11(a5)
    1d2e:	0037c703          	lbu	a4,3(a5)
    1d32:	00e78623          	sb	a4,12(a5)
    1d36:	40f2                	lw	ra,28(sp)
    1d38:	4462                	lw	s0,24(sp)
    1d3a:	6105                	addi	sp,sp,32
    1d3c:	8082                	ret
    1d3e:	4509                	li	a0,2
    1d40:	bfdd                	j	1d36 <Standard_SetInterface+0x52>

00001d42 <Standard_ClearFeature>:
    1d42:	4581a783          	lw	a5,1112(gp) # 20000f78 <pInformation>
    1d46:	0007c683          	lbu	a3,0(a5)
    1d4a:	07f6f693          	andi	a3,a3,127
    1d4e:	ea91                	bnez	a3,1d62 <Standard_ClearFeature+0x20>
    1d50:	0097c703          	lbu	a4,9(a5)
    1d54:	fdf77713          	andi	a4,a4,-33
    1d58:	00e784a3          	sb	a4,9(a5)
    1d5c:	4701                	li	a4,0
    1d5e:	853a                	mv	a0,a4
    1d60:	8082                	ret
    1d62:	4609                	li	a2,2
    1d64:	4709                	li	a4,2
    1d66:	fec69ce3          	bne	a3,a2,1d5e <Standard_ClearFeature+0x1c>
    1d6a:	0027d683          	lhu	a3,2(a5)
    1d6e:	fae5                	bnez	a3,1d5e <Standard_ClearFeature+0x1c>
    1d70:	0047c683          	lbu	a3,4(a5)
    1d74:	f6ed                	bnez	a3,1d5e <Standard_ClearFeature+0x1c>
    1d76:	0057c603          	lbu	a2,5(a5)
    1d7a:	1141                	addi	sp,sp,-16
    1d7c:	40006737          	lui	a4,0x40006
    1d80:	f7f67513          	andi	a0,a2,-129
    1d84:	c422                	sw	s0,8(sp)
    1d86:	c0070713          	addi	a4,a4,-1024 # 40005c00 <_eusrstack+0x20000c00>
    1d8a:	00251413          	slli	s0,a0,0x2
    1d8e:	943a                	add	s0,s0,a4
    1d90:	0662                	slli	a2,a2,0x18
    1d92:	4014                	lw	a3,0(s0)
    1d94:	c606                	sw	ra,12(sp)
    1d96:	c226                	sw	s1,4(sp)
    1d98:	8661                	srai	a2,a2,0x18
    1d9a:	04065a63          	bgez	a2,1dee <Standard_ClearFeature+0xac>
    1d9e:	0306f693          	andi	a3,a3,48
    1da2:	8181c583          	lbu	a1,-2024(gp) # 20000338 <Device_Table>
    1da6:	4709                	li	a4,2
    1da8:	02b57d63          	bgeu	a0,a1,1de2 <Standard_ClearFeature+0xa0>
    1dac:	ca9d                	beqz	a3,1de2 <Standard_ClearFeature+0xa0>
    1dae:	00a7c783          	lbu	a5,10(a5)
    1db2:	cb85                	beqz	a5,1de2 <Standard_ClearFeature+0xa0>
    1db4:	401c                	lw	a5,0(s0)
    1db6:	02065f63          	bgez	a2,1df4 <Standard_ClearFeature+0xb2>
    1dba:	0307f793          	andi	a5,a5,48
    1dbe:	4741                	li	a4,16
    1dc0:	00e79c63          	bne	a5,a4,1dd8 <Standard_ClearFeature+0x96>
    1dc4:	0ff57413          	andi	s0,a0,255
    1dc8:	8522                	mv	a0,s0
    1dca:	44d000ef          	jal	ra,2a16 <ClearDTOG_TX>
    1dce:	03000593          	li	a1,48
    1dd2:	8522                	mv	a0,s0
    1dd4:	2c7000ef          	jal	ra,289a <SetEPTxStatus>
    1dd8:	4541a783          	lw	a5,1108(gp) # 20000f74 <pUser_Standard_Requests>
    1ddc:	4bdc                	lw	a5,20(a5)
    1dde:	9782                	jalr	a5
    1de0:	4701                	li	a4,0
    1de2:	40b2                	lw	ra,12(sp)
    1de4:	4422                	lw	s0,8(sp)
    1de6:	4492                	lw	s1,4(sp)
    1de8:	853a                	mv	a0,a4
    1dea:	0141                	addi	sp,sp,16
    1dec:	8082                	ret
    1dee:	670d                	lui	a4,0x3
    1df0:	8ef9                	and	a3,a3,a4
    1df2:	bf45                	j	1da2 <Standard_ClearFeature+0x60>
    1df4:	64c1                	lui	s1,0x10
    1df6:	14fd                	addi	s1,s1,-1
    1df8:	670d                	lui	a4,0x3
    1dfa:	8fe5                	and	a5,a5,s1
    1dfc:	8ff9                	and	a5,a5,a4
    1dfe:	6705                	lui	a4,0x1
    1e00:	fce79ce3          	bne	a5,a4,1dd8 <Standard_ClearFeature+0x96>
    1e04:	ed1d                	bnez	a0,1e42 <Standard_ClearFeature+0x100>
    1e06:	200007b7          	lui	a5,0x20000
    1e0a:	2c47c583          	lbu	a1,708(a5) # 200002c4 <Device_Property+0x2c>
    1e0e:	4d7000ef          	jal	ra,2ae4 <SetEPRxCount>
    1e12:	401c                	lw	a5,0(s0)
    1e14:	7771                	lui	a4,0xffffc
    1e16:	f8f70713          	addi	a4,a4,-113 # ffffbf8f <_eusrstack+0xdfff6f8f>
    1e1a:	8ff9                	and	a5,a5,a4
    1e1c:	07c2                	slli	a5,a5,0x10
    1e1e:	670d                	lui	a4,0x3
    1e20:	83c1                	srli	a5,a5,0x10
    1e22:	8fb9                	xor	a5,a5,a4
    1e24:	7761                	lui	a4,0xffff8
    1e26:	08070713          	addi	a4,a4,128 # ffff8080 <_eusrstack+0xdfff3080>
    1e2a:	8fd9                	or	a5,a5,a4
    1e2c:	07c2                	slli	a5,a5,0x10
    1e2e:	83c1                	srli	a5,a5,0x10
    1e30:	c01c                	sw	a5,0(s0)
    1e32:	668d                	lui	a3,0x3
    1e34:	4018                	lw	a4,0(s0)
    1e36:	8f65                	and	a4,a4,s1
    1e38:	8f75                	and	a4,a4,a3
    1e3a:	f8d70fe3          	beq	a4,a3,1dd8 <Standard_ClearFeature+0x96>
    1e3e:	c01c                	sw	a5,0(s0)
    1e40:	bfd5                	j	1e34 <Standard_ClearFeature+0xf2>
    1e42:	3a1000ef          	jal	ra,29e2 <ClearDTOG_RX>
    1e46:	401c                	lw	a5,0(s0)
    1e48:	7771                	lui	a4,0xffffc
    1e4a:	f8f70713          	addi	a4,a4,-113 # ffffbf8f <_eusrstack+0xdfff6f8f>
    1e4e:	8ff9                	and	a5,a5,a4
    1e50:	07c2                	slli	a5,a5,0x10
    1e52:	670d                	lui	a4,0x3
    1e54:	83c1                	srli	a5,a5,0x10
    1e56:	8fb9                	xor	a5,a5,a4
    1e58:	7761                	lui	a4,0xffff8
    1e5a:	08070713          	addi	a4,a4,128 # ffff8080 <_eusrstack+0xdfff3080>
    1e5e:	8fd9                	or	a5,a5,a4
    1e60:	07c2                	slli	a5,a5,0x10
    1e62:	83c1                	srli	a5,a5,0x10
    1e64:	c01c                	sw	a5,0(s0)
    1e66:	668d                	lui	a3,0x3
    1e68:	4018                	lw	a4,0(s0)
    1e6a:	8f65                	and	a4,a4,s1
    1e6c:	8f75                	and	a4,a4,a3
    1e6e:	f6d705e3          	beq	a4,a3,1dd8 <Standard_ClearFeature+0x96>
    1e72:	c01c                	sw	a5,0(s0)
    1e74:	bfd5                	j	1e68 <Standard_ClearFeature+0x126>

00001e76 <Standard_SetEndPointFeature>:
    1e76:	4581a603          	lw	a2,1112(gp) # 20000f78 <pInformation>
    1e7a:	400067b7          	lui	a5,0x40006
    1e7e:	c0078793          	addi	a5,a5,-1024 # 40005c00 <_eusrstack+0x20000c00>
    1e82:	00564683          	lbu	a3,5(a2)
    1e86:	f7f6f593          	andi	a1,a3,-129
    1e8a:	00259713          	slli	a4,a1,0x2
    1e8e:	97ba                	add	a5,a5,a4
    1e90:	06e2                	slli	a3,a3,0x18
    1e92:	4398                	lw	a4,0(a5)
    1e94:	86e1                	srai	a3,a3,0x18
    1e96:	0606d263          	bgez	a3,1efa <Standard_SetEndPointFeature+0x84>
    1e9a:	03077713          	andi	a4,a4,48
    1e9e:	8181c803          	lbu	a6,-2024(gp) # 20000338 <Device_Table>
    1ea2:	4509                	li	a0,2
    1ea4:	0905fa63          	bgeu	a1,a6,1f38 <Standard_SetEndPointFeature+0xc2>
    1ea8:	00265583          	lhu	a1,2(a2)
    1eac:	e5d1                	bnez	a1,1f38 <Standard_SetEndPointFeature+0xc2>
    1eae:	c749                	beqz	a4,1f38 <Standard_SetEndPointFeature+0xc2>
    1eb0:	00a64703          	lbu	a4,10(a2)
    1eb4:	c351                	beqz	a4,1f38 <Standard_SetEndPointFeature+0xc2>
    1eb6:	1141                	addi	sp,sp,-16
    1eb8:	4398                	lw	a4,0(a5)
    1eba:	c606                	sw	ra,12(sp)
    1ebc:	0406d463          	bgez	a3,1f04 <Standard_SetEndPointFeature+0x8e>
    1ec0:	76e5                	lui	a3,0xffff9
    1ec2:	fbf68693          	addi	a3,a3,-65 # ffff8fbf <_eusrstack+0xdfff3fbf>
    1ec6:	8f75                	and	a4,a4,a3
    1ec8:	0742                	slli	a4,a4,0x10
    1eca:	8341                	srli	a4,a4,0x10
    1ecc:	76e1                	lui	a3,0xffff8
    1ece:	01074713          	xori	a4,a4,16
    1ed2:	08068693          	addi	a3,a3,128 # ffff8080 <_eusrstack+0xdfff3080>
    1ed6:	8f55                	or	a4,a4,a3
    1ed8:	0742                	slli	a4,a4,0x10
    1eda:	8341                	srli	a4,a4,0x10
    1edc:	c398                	sw	a4,0(a5)
    1ede:	4641                	li	a2,16
    1ee0:	4394                	lw	a3,0(a5)
    1ee2:	0306f693          	andi	a3,a3,48
    1ee6:	00c69d63          	bne	a3,a2,1f00 <Standard_SetEndPointFeature+0x8a>
    1eea:	4541a783          	lw	a5,1108(gp) # 20000f74 <pUser_Standard_Requests>
    1eee:	4f9c                	lw	a5,24(a5)
    1ef0:	9782                	jalr	a5
    1ef2:	40b2                	lw	ra,12(sp)
    1ef4:	4501                	li	a0,0
    1ef6:	0141                	addi	sp,sp,16
    1ef8:	8082                	ret
    1efa:	650d                	lui	a0,0x3
    1efc:	8f69                	and	a4,a4,a0
    1efe:	b745                	j	1e9e <Standard_SetEndPointFeature+0x28>
    1f00:	c398                	sw	a4,0(a5)
    1f02:	bff9                	j	1ee0 <Standard_SetEndPointFeature+0x6a>
    1f04:	76f1                	lui	a3,0xffffc
    1f06:	f8f68693          	addi	a3,a3,-113 # ffffbf8f <_eusrstack+0xdfff6f8f>
    1f0a:	8f75                	and	a4,a4,a3
    1f0c:	0742                	slli	a4,a4,0x10
    1f0e:	6685                	lui	a3,0x1
    1f10:	8341                	srli	a4,a4,0x10
    1f12:	8f35                	xor	a4,a4,a3
    1f14:	76e1                	lui	a3,0xffff8
    1f16:	08068693          	addi	a3,a3,128 # ffff8080 <_eusrstack+0xdfff3080>
    1f1a:	8f55                	or	a4,a4,a3
    1f1c:	0742                	slli	a4,a4,0x10
    1f1e:	8341                	srli	a4,a4,0x10
    1f20:	6641                	lui	a2,0x10
    1f22:	c398                	sw	a4,0(a5)
    1f24:	167d                	addi	a2,a2,-1
    1f26:	650d                	lui	a0,0x3
    1f28:	6585                	lui	a1,0x1
    1f2a:	4394                	lw	a3,0(a5)
    1f2c:	8ef1                	and	a3,a3,a2
    1f2e:	8ee9                	and	a3,a3,a0
    1f30:	fab68de3          	beq	a3,a1,1eea <Standard_SetEndPointFeature+0x74>
    1f34:	c398                	sw	a4,0(a5)
    1f36:	bfd5                	j	1f2a <Standard_SetEndPointFeature+0xb4>
    1f38:	8082                	ret

00001f3a <Standard_SetDeviceFeature>:
    1f3a:	4581a703          	lw	a4,1112(gp) # 20000f78 <pInformation>
    1f3e:	1141                	addi	sp,sp,-16
    1f40:	c606                	sw	ra,12(sp)
    1f42:	00974783          	lbu	a5,9(a4)
    1f46:	0207e793          	ori	a5,a5,32
    1f4a:	00f704a3          	sb	a5,9(a4)
    1f4e:	4541a783          	lw	a5,1108(gp) # 20000f74 <pUser_Standard_Requests>
    1f52:	4fdc                	lw	a5,28(a5)
    1f54:	9782                	jalr	a5
    1f56:	40b2                	lw	ra,12(sp)
    1f58:	4501                	li	a0,0
    1f5a:	0141                	addi	sp,sp,16
    1f5c:	8082                	ret

00001f5e <Standard_GetDescriptorData>:
    1f5e:	4581a703          	lw	a4,1112(gp) # 20000f78 <pInformation>
    1f62:	01275783          	lhu	a5,18(a4)
    1f66:	e901                	bnez	a0,1f76 <Standard_GetDescriptorData+0x18>
    1f68:	0045d503          	lhu	a0,4(a1) # 1004 <USART_Init+0x5c>
    1f6c:	8d1d                	sub	a0,a0,a5
    1f6e:	00a71823          	sh	a0,16(a4)
    1f72:	4501                	li	a0,0
    1f74:	8082                	ret
    1f76:	4188                	lw	a0,0(a1)
    1f78:	953e                	add	a0,a0,a5
    1f7a:	8082                	ret

00001f7c <Post0_Process>:
    1f7c:	200007b7          	lui	a5,0x20000
    1f80:	2c47c583          	lbu	a1,708(a5) # 200002c4 <Device_Property+0x2c>
    1f84:	1141                	addi	sp,sp,-16
    1f86:	4501                	li	a0,0
    1f88:	c606                	sw	ra,12(sp)
    1f8a:	35b000ef          	jal	ra,2ae4 <SetEPRxCount>
    1f8e:	4581a783          	lw	a5,1112(gp) # 20000f78 <pInformation>
    1f92:	0087c503          	lbu	a0,8(a5)
    1f96:	47a1                	li	a5,8
    1f98:	00f51863          	bne	a0,a5,1fa8 <Post0_Process+0x2c>
    1f9c:	6705                	lui	a4,0x1
    1f9e:	44e19f23          	sh	a4,1118(gp) # 20000f7e <SaveRState>
    1fa2:	4741                	li	a4,16
    1fa4:	46e19023          	sh	a4,1120(gp) # 20000f80 <SaveTState>
    1fa8:	40b2                	lw	ra,12(sp)
    1faa:	155d                	addi	a0,a0,-9
    1fac:	00153513          	seqz	a0,a0
    1fb0:	0141                	addi	sp,sp,16
    1fb2:	8082                	ret

00001fb4 <Setup0_Process>:
    1fb4:	1101                	addi	sp,sp,-32
    1fb6:	ca26                	sw	s1,20(sp)
    1fb8:	c84a                	sw	s2,16(sp)
    1fba:	4581a903          	lw	s2,1112(gp) # 20000f78 <pInformation>
    1fbe:	ce06                	sw	ra,28(sp)
    1fc0:	cc22                	sw	s0,24(sp)
    1fc2:	40006637          	lui	a2,0x40006
    1fc6:	00894683          	lbu	a3,8(s2)
    1fca:	c5062783          	lw	a5,-944(a2) # 40005c50 <_eusrstack+0x20000c50>
    1fce:	4725                	li	a4,9
    1fd0:	04e68b63          	beq	a3,a4,2026 <Setup0_Process+0x72>
    1fd4:	6441                	lui	s0,0x10
    1fd6:	fff40713          	addi	a4,s0,-1 # ffff <_data_lma+0xae2f>
    1fda:	200036b7          	lui	a3,0x20003
    1fde:	8ff9                	and	a5,a5,a4
    1fe0:	0691                	addi	a3,a3,4
    1fe2:	97b6                	add	a5,a5,a3
    1fe4:	0786                	slli	a5,a5,0x1
    1fe6:	4380                	lw	s0,0(a5)
    1fe8:	8c79                	and	s0,s0,a4
    1fea:	0406                	slli	s0,s0,0x1
    1fec:	9432                	add	s0,s0,a2
    1fee:	00044783          	lbu	a5,0(s0)
    1ff2:	00f90023          	sb	a5,0(s2)
    1ff6:	00144783          	lbu	a5,1(s0)
    1ffa:	00f900a3          	sb	a5,1(s2)
    1ffe:	00445503          	lhu	a0,4(s0)
    2002:	34d000ef          	jal	ra,2b4e <ByteSwap>
    2006:	00a91123          	sh	a0,2(s2)
    200a:	00845503          	lhu	a0,8(s0)
    200e:	4581a903          	lw	s2,1112(gp) # 20000f78 <pInformation>
    2012:	33d000ef          	jal	ra,2b4e <ByteSwap>
    2016:	00a91223          	sh	a0,4(s2)
    201a:	00c45703          	lhu	a4,12(s0)
    201e:	4581a783          	lw	a5,1112(gp) # 20000f78 <pInformation>
    2022:	00e79323          	sh	a4,6(a5)
    2026:	4581a783          	lw	a5,1112(gp) # 20000f78 <pInformation>
    202a:	4705                	li	a4,1
    202c:	00e78423          	sb	a4,8(a5)
    2030:	0067d703          	lhu	a4,6(a5)
    2034:	0017c403          	lbu	s0,1(a5)
    2038:	0e071663          	bnez	a4,2124 <Setup0_Process+0x170>
    203c:	0007c703          	lbu	a4,0(a5)
    2040:	07f77713          	andi	a4,a4,127
    2044:	ef55                	bnez	a4,2100 <Setup0_Process+0x14c>
    2046:	4725                	li	a4,9
    2048:	00e41563          	bne	s0,a4,2052 <Setup0_Process+0x9e>
    204c:	3185                	jal	1cac <Standard_SetConfiguration>
    204e:	e925                	bnez	a0,20be <Setup0_Process+0x10a>
    2050:	a825                	j	2088 <Setup0_Process+0xd4>
    2052:	4715                	li	a4,5
    2054:	04e41d63          	bne	s0,a4,20ae <Setup0_Process+0xfa>
    2058:	00378703          	lb	a4,3(a5)
    205c:	00075d63          	bgez	a4,2076 <Setup0_Process+0xc2>
    2060:	47a1                	li	a5,8
    2062:	4581a703          	lw	a4,1112(gp) # 20000f78 <pInformation>
    2066:	00f70423          	sb	a5,8(a4) # 1008 <USART_Init+0x60>
    206a:	4462                	lw	s0,24(sp)
    206c:	40f2                	lw	ra,28(sp)
    206e:	44d2                	lw	s1,20(sp)
    2070:	4942                	lw	s2,16(sp)
    2072:	6105                	addi	sp,sp,32
    2074:	b721                	j	1f7c <Post0_Process>
    2076:	0027c703          	lbu	a4,2(a5)
    207a:	f37d                	bnez	a4,2060 <Setup0_Process+0xac>
    207c:	0047d703          	lhu	a4,4(a5)
    2080:	f365                	bnez	a4,2060 <Setup0_Process+0xac>
    2082:	00a7c783          	lbu	a5,10(a5)
    2086:	ffe9                	bnez	a5,2060 <Setup0_Process+0xac>
    2088:	400067b7          	lui	a5,0x40006
    208c:	c507a783          	lw	a5,-944(a5) # 40005c50 <_eusrstack+0x20000c50>
    2090:	20003737          	lui	a4,0x20003
    2094:	0709                	addi	a4,a4,2
    2096:	07c2                	slli	a5,a5,0x10
    2098:	83c1                	srli	a5,a5,0x10
    209a:	97ba                	add	a5,a5,a4
    209c:	0786                	slli	a5,a5,0x1
    209e:	0007a023          	sw	zero,0(a5)
    20a2:	03000713          	li	a4,48
    20a6:	46e19023          	sh	a4,1120(gp) # 20000f80 <SaveTState>
    20aa:	4799                	li	a5,6
    20ac:	bf5d                	j	2062 <Setup0_Process+0xae>
    20ae:	470d                	li	a4,3
    20b0:	02e41763          	bne	s0,a4,20de <Setup0_Process+0x12a>
    20b4:	0037c683          	lbu	a3,3(a5)
    20b8:	4705                	li	a4,1
    20ba:	00e68d63          	beq	a3,a4,20d4 <Setup0_Process+0x120>
    20be:	4301a783          	lw	a5,1072(gp) # 20000f50 <pProperty>
    20c2:	8522                	mv	a0,s0
    20c4:	4bdc                	lw	a5,20(a5)
    20c6:	9782                	jalr	a5
    20c8:	470d                	li	a4,3
    20ca:	47a5                	li	a5,9
    20cc:	f8e50be3          	beq	a0,a4,2062 <Setup0_Process+0xae>
    20d0:	dd45                	beqz	a0,2088 <Setup0_Process+0xd4>
    20d2:	b779                	j	2060 <Setup0_Process+0xac>
    20d4:	0047d783          	lhu	a5,4(a5)
    20d8:	f3fd                	bnez	a5,20be <Setup0_Process+0x10a>
    20da:	3585                	jal	1f3a <Standard_SetDeviceFeature>
    20dc:	bf8d                	j	204e <Setup0_Process+0x9a>
    20de:	4705                	li	a4,1
    20e0:	fce41fe3          	bne	s0,a4,20be <Setup0_Process+0x10a>
    20e4:	0037c703          	lbu	a4,3(a5)
    20e8:	fc871be3          	bne	a4,s0,20be <Setup0_Process+0x10a>
    20ec:	0047d703          	lhu	a4,4(a5)
    20f0:	f779                	bnez	a4,20be <Setup0_Process+0x10a>
    20f2:	0097c783          	lbu	a5,9(a5)
    20f6:	0207f793          	andi	a5,a5,32
    20fa:	d3f1                	beqz	a5,20be <Setup0_Process+0x10a>
    20fc:	3199                	jal	1d42 <Standard_ClearFeature>
    20fe:	bf81                	j	204e <Setup0_Process+0x9a>
    2100:	4785                	li	a5,1
    2102:	00f71763          	bne	a4,a5,2110 <Setup0_Process+0x15c>
    2106:	47ad                	li	a5,11
    2108:	faf41be3          	bne	s0,a5,20be <Setup0_Process+0x10a>
    210c:	3ee1                	jal	1ce4 <Standard_SetInterface>
    210e:	b781                	j	204e <Setup0_Process+0x9a>
    2110:	4689                	li	a3,2
    2112:	fad716e3          	bne	a4,a3,20be <Setup0_Process+0x10a>
    2116:	fef403e3          	beq	s0,a5,20fc <Setup0_Process+0x148>
    211a:	478d                	li	a5,3
    211c:	faf411e3          	bne	s0,a5,20be <Setup0_Process+0x10a>
    2120:	3b99                	jal	1e76 <Standard_SetEndPointFeature>
    2122:	b735                	j	204e <Setup0_Process+0x9a>
    2124:	4719                	li	a4,6
    2126:	02e41b63          	bne	s0,a4,215c <Setup0_Process+0x1a8>
    212a:	0007c703          	lbu	a4,0(a5)
    212e:	07f77713          	andi	a4,a4,127
    2132:	e37d                	bnez	a4,2218 <Setup0_Process+0x264>
    2134:	0027c783          	lbu	a5,2(a5)
    2138:	4685                	li	a3,1
    213a:	4301a703          	lw	a4,1072(gp) # 20000f50 <pProperty>
    213e:	00d79563          	bne	a5,a3,2148 <Setup0_Process+0x194>
    2142:	4f5c                	lw	a5,28(a4)
    2144:	cbf1                	beqz	a5,2218 <Setup0_Process+0x264>
    2146:	a0a1                	j	218e <Setup0_Process+0x1da>
    2148:	4689                	li	a3,2
    214a:	00d79463          	bne	a5,a3,2152 <Setup0_Process+0x19e>
    214e:	531c                	lw	a5,32(a4)
    2150:	bfd5                	j	2144 <Setup0_Process+0x190>
    2152:	468d                	li	a3,3
    2154:	0cd79263          	bne	a5,a3,2218 <Setup0_Process+0x264>
    2158:	535c                	lw	a5,36(a4)
    215a:	b7ed                	j	2144 <Setup0_Process+0x190>
    215c:	e075                	bnez	s0,2240 <Setup0_Process+0x28c>
    215e:	0027d703          	lhu	a4,2(a5)
    2162:	eb5d                	bnez	a4,2218 <Setup0_Process+0x264>
    2164:	43d8                	lw	a4,4(a5)
    2166:	76c1                	lui	a3,0xffff0
    2168:	0ff68693          	addi	a3,a3,255 # ffff00ff <_eusrstack+0xdffeb0ff>
    216c:	8f75                	and	a4,a4,a3
    216e:	000206b7          	lui	a3,0x20
    2172:	0ad71363          	bne	a4,a3,2218 <Setup0_Process+0x264>
    2176:	0007c703          	lbu	a4,0(a5)
    217a:	07f77713          	andi	a4,a4,127
    217e:	ef1d                	bnez	a4,21bc <Setup0_Process+0x208>
    2180:	0047d783          	lhu	a5,4(a5)
    2184:	ebd1                	bnez	a5,2218 <Setup0_Process+0x264>
    2186:	000027b7          	lui	a5,0x2
    218a:	b3078793          	addi	a5,a5,-1232 # 1b30 <Standard_GetStatus>
    218e:	4581a703          	lw	a4,1112(gp) # 20000f78 <pInformation>
    2192:	4501                	li	a0,0
    2194:	00071923          	sh	zero,18(a4) # 20003012 <_ebss+0x1c46>
    2198:	cf1c                	sw	a5,24(a4)
    219a:	9782                	jalr	a5
    219c:	4501                	li	a0,0
    219e:	4581a783          	lw	a5,1112(gp) # 20000f78 <pInformation>
    21a2:	66c1                	lui	a3,0x10
    21a4:	16fd                	addi	a3,a3,-1
    21a6:	0107d703          	lhu	a4,16(a5)
    21aa:	08d70463          	beq	a4,a3,2232 <Setup0_Process+0x27e>
    21ae:	4689                	li	a3,2
    21b0:	00d50463          	beq	a0,a3,21b8 <Setup0_Process+0x204>
    21b4:	0e071863          	bnez	a4,22a4 <Setup0_Process+0x2f0>
    21b8:	4721                	li	a4,8
    21ba:	a8ad                	j	2234 <Setup0_Process+0x280>
    21bc:	4685                	li	a3,1
    21be:	02d71063          	bne	a4,a3,21de <Setup0_Process+0x22a>
    21c2:	4301a703          	lw	a4,1072(gp) # 20000f50 <pProperty>
    21c6:	0057c503          	lbu	a0,5(a5)
    21ca:	4581                	li	a1,0
    21cc:	4f18                	lw	a4,24(a4)
    21ce:	9702                	jalr	a4
    21d0:	e521                	bnez	a0,2218 <Setup0_Process+0x264>
    21d2:	4581a783          	lw	a5,1112(gp) # 20000f78 <pInformation>
    21d6:	00a7c783          	lbu	a5,10(a5)
    21da:	f7d5                	bnez	a5,2186 <Setup0_Process+0x1d2>
    21dc:	a835                	j	2218 <Setup0_Process+0x264>
    21de:	4689                	li	a3,2
    21e0:	02d71c63          	bne	a4,a3,2218 <Setup0_Process+0x264>
    21e4:	0057c703          	lbu	a4,5(a5)
    21e8:	400066b7          	lui	a3,0x40006
    21ec:	c0068693          	addi	a3,a3,-1024 # 40005c00 <_eusrstack+0x20000c00>
    21f0:	00f77613          	andi	a2,a4,15
    21f4:	00261793          	slli	a5,a2,0x2
    21f8:	97b6                	add	a5,a5,a3
    21fa:	439c                	lw	a5,0(a5)
    21fc:	01871693          	slli	a3,a4,0x18
    2200:	86e1                	srai	a3,a3,0x18
    2202:	0206dc63          	bgez	a3,223a <Setup0_Process+0x286>
    2206:	0307f793          	andi	a5,a5,48
    220a:	8181c683          	lbu	a3,-2024(gp) # 20000338 <Device_Table>
    220e:	00d67563          	bgeu	a2,a3,2218 <Setup0_Process+0x264>
    2212:	07077713          	andi	a4,a4,112
    2216:	d371                	beqz	a4,21da <Setup0_Process+0x226>
    2218:	4581a703          	lw	a4,1112(gp) # 20000f78 <pInformation>
    221c:	4301a783          	lw	a5,1072(gp) # 20000f50 <pProperty>
    2220:	00174503          	lbu	a0,1(a4)
    2224:	4b9c                	lw	a5,16(a5)
    2226:	9782                	jalr	a5
    2228:	478d                	li	a5,3
    222a:	f6f51ae3          	bne	a0,a5,219e <Setup0_Process+0x1ea>
    222e:	4581a783          	lw	a5,1112(gp) # 20000f78 <pInformation>
    2232:	4725                	li	a4,9
    2234:	00e78423          	sb	a4,8(a5)
    2238:	bd0d                	j	206a <Setup0_Process+0xb6>
    223a:	668d                	lui	a3,0x3
    223c:	8ff5                	and	a5,a5,a3
    223e:	b7f1                	j	220a <Setup0_Process+0x256>
    2240:	4721                	li	a4,8
    2242:	00e41c63          	bne	s0,a4,225a <Setup0_Process+0x2a6>
    2246:	0007c783          	lbu	a5,0(a5)
    224a:	07f7f793          	andi	a5,a5,127
    224e:	f7e9                	bnez	a5,2218 <Setup0_Process+0x264>
    2250:	000027b7          	lui	a5,0x2
    2254:	adc78793          	addi	a5,a5,-1316 # 1adc <Standard_GetConfiguration>
    2258:	bf1d                	j	218e <Setup0_Process+0x1da>
    225a:	4729                	li	a4,10
    225c:	fae41ee3          	bne	s0,a4,2218 <Setup0_Process+0x264>
    2260:	0007c703          	lbu	a4,0(a5)
    2264:	4685                	li	a3,1
    2266:	07f77713          	andi	a4,a4,127
    226a:	fad717e3          	bne	a4,a3,2218 <Setup0_Process+0x264>
    226e:	00a7c703          	lbu	a4,10(a5)
    2272:	d35d                	beqz	a4,2218 <Setup0_Process+0x264>
    2274:	0027d703          	lhu	a4,2(a5)
    2278:	f345                	bnez	a4,2218 <Setup0_Process+0x264>
    227a:	43d8                	lw	a4,4(a5)
    227c:	76c1                	lui	a3,0xffff0
    227e:	0ff68693          	addi	a3,a3,255 # ffff00ff <_eusrstack+0xdffeb0ff>
    2282:	8f75                	and	a4,a4,a3
    2284:	66c1                	lui	a3,0x10
    2286:	f8d719e3          	bne	a4,a3,2218 <Setup0_Process+0x264>
    228a:	4301a703          	lw	a4,1072(gp) # 20000f50 <pProperty>
    228e:	0057c503          	lbu	a0,5(a5)
    2292:	4581                	li	a1,0
    2294:	4f18                	lw	a4,24(a4)
    2296:	9702                	jalr	a4
    2298:	f141                	bnez	a0,2218 <Setup0_Process+0x264>
    229a:	000027b7          	lui	a5,0x2
    229e:	b0678793          	addi	a5,a5,-1274 # 1b06 <Standard_GetInterface>
    22a2:	b5f5                	j	218e <Setup0_Process+0x1da>
    22a4:	00078683          	lb	a3,0(a5)
    22a8:	0406d563          	bgez	a3,22f2 <Setup0_Process+0x33e>
    22ac:	4301a683          	lw	a3,1072(gp) # 20000f50 <pProperty>
    22b0:	0067d583          	lhu	a1,6(a5)
    22b4:	02c6c603          	lbu	a2,44(a3) # 1002c <_data_lma+0xae5c>
    22b8:	c62e                	sw	a1,12(sp)
    22ba:	4532                	lw	a0,12(sp)
    22bc:	01061693          	slli	a3,a2,0x10
    22c0:	82c1                	srli	a3,a3,0x10
    22c2:	00e57a63          	bgeu	a0,a4,22d6 <Setup0_Process+0x322>
    22c6:	4732                	lw	a4,12(sp)
    22c8:	00e79823          	sh	a4,16(a5)
    22cc:	00d79a23          	sh	a3,20(a5)
    22d0:	905ff0ef          	jal	ra,1bd4 <DataStageIn>
    22d4:	bb59                	j	206a <Setup0_Process+0xb6>
    22d6:	feb77be3          	bgeu	a4,a1,22cc <Setup0_Process+0x318>
    22da:	00d77563          	bgeu	a4,a3,22e4 <Setup0_Process+0x330>
    22de:	8201a623          	sw	zero,-2004(gp) # 2000034c <Data_Mul_MaxPacketSize>
    22e2:	b7ed                	j	22cc <Setup0_Process+0x318>
    22e4:	02c76733          	rem	a4,a4,a2
    22e8:	f375                	bnez	a4,22cc <Setup0_Process+0x318>
    22ea:	4605                	li	a2,1
    22ec:	82c1a623          	sw	a2,-2004(gp) # 2000034c <Data_Mul_MaxPacketSize>
    22f0:	bff1                	j	22cc <Setup0_Process+0x318>
    22f2:	470d                	li	a4,3
    22f4:	00e78423          	sb	a4,8(a5)
    22f8:	670d                	lui	a4,0x3
    22fa:	44e19f23          	sh	a4,1118(gp) # 20000f7e <SaveRState>
    22fe:	b3b5                	j	206a <Setup0_Process+0xb6>

00002300 <Out0_Process>:
    2300:	1101                	addi	sp,sp,-32
    2302:	c84a                	sw	s2,16(sp)
    2304:	cc22                	sw	s0,24(sp)
    2306:	4581a403          	lw	s0,1112(gp) # 20000f78 <pInformation>
    230a:	ca26                	sw	s1,20(sp)
    230c:	ce06                	sw	ra,28(sp)
    230e:	c64e                	sw	s3,12(sp)
    2310:	00844783          	lbu	a5,8(s0)
    2314:	44a1                	li	s1,8
    2316:	ffe78713          	addi	a4,a5,-2
    231a:	0fd77713          	andi	a4,a4,253
    231e:	cf3d                	beqz	a4,239c <Out0_Process+0x9c>
    2320:	ffd78713          	addi	a4,a5,-3
    2324:	0fd77713          	andi	a4,a4,253
    2328:	ef4d                	bnez	a4,23e2 <Out0_Process+0xe2>
    232a:	4c1c                	lw	a5,24(s0)
    232c:	cf95                	beqz	a5,2368 <Out0_Process+0x68>
    232e:	01045483          	lhu	s1,16(s0)
    2332:	c8a1                	beqz	s1,2382 <Out0_Process+0x82>
    2334:	01445703          	lhu	a4,20(s0)
    2338:	00977363          	bgeu	a4,s1,233e <Out0_Process+0x3e>
    233c:	84ba                	mv	s1,a4
    233e:	04c2                	slli	s1,s1,0x10
    2340:	80c1                	srli	s1,s1,0x10
    2342:	8526                	mv	a0,s1
    2344:	9782                	jalr	a5
    2346:	01045783          	lhu	a5,16(s0)
    234a:	89aa                	mv	s3,a0
    234c:	4501                	li	a0,0
    234e:	8f85                	sub	a5,a5,s1
    2350:	00f41823          	sh	a5,16(s0)
    2354:	01245783          	lhu	a5,18(s0)
    2358:	97a6                	add	a5,a5,s1
    235a:	00f41923          	sh	a5,18(s0)
    235e:	27a1                	jal	2aa6 <GetEPRxAddr>
    2360:	85aa                	mv	a1,a0
    2362:	8626                	mv	a2,s1
    2364:	854e                	mv	a0,s3
    2366:	21dd                	jal	284c <PMAToUserBufferCopy>
    2368:	01045783          	lhu	a5,16(s0)
    236c:	cb99                	beqz	a5,2382 <Out0_Process+0x82>
    236e:	670d                	lui	a4,0x3
    2370:	4581                	li	a1,0
    2372:	4501                	li	a0,0
    2374:	44e19f23          	sh	a4,1118(gp) # 20000f7e <SaveRState>
    2378:	27b9                	jal	2ac6 <SetEPTxCount>
    237a:	03000713          	li	a4,48
    237e:	46e19023          	sh	a4,1120(gp) # 20000f80 <SaveTState>
    2382:	01045783          	lhu	a5,16(s0)
    2386:	01445683          	lhu	a3,20(s0)
    238a:	4581a703          	lw	a4,1112(gp) # 20000f78 <pInformation>
    238e:	02d7e263          	bltu	a5,a3,23b2 <Out0_Process+0xb2>
    2392:	478d                	li	a5,3
    2394:	00f70423          	sb	a5,8(a4) # 3008 <USBD_init+0x22>
    2398:	00874483          	lbu	s1,8(a4)
    239c:	4581a783          	lw	a5,1112(gp) # 20000f78 <pInformation>
    23a0:	00978423          	sb	s1,8(a5)
    23a4:	4462                	lw	s0,24(sp)
    23a6:	40f2                	lw	ra,28(sp)
    23a8:	44d2                	lw	s1,20(sp)
    23aa:	4942                	lw	s2,16(sp)
    23ac:	49b2                	lw	s3,12(sp)
    23ae:	6105                	addi	sp,sp,32
    23b0:	b6f1                	j	1f7c <Post0_Process>
    23b2:	c399                	beqz	a5,23b8 <Out0_Process+0xb8>
    23b4:	4795                	li	a5,5
    23b6:	bff9                	j	2394 <Out0_Process+0x94>
    23b8:	4799                	li	a5,6
    23ba:	00f70423          	sb	a5,8(a4)
    23be:	400067b7          	lui	a5,0x40006
    23c2:	c507a783          	lw	a5,-944(a5) # 40005c50 <_eusrstack+0x20000c50>
    23c6:	200036b7          	lui	a3,0x20003
    23ca:	0689                	addi	a3,a3,2
    23cc:	07c2                	slli	a5,a5,0x10
    23ce:	83c1                	srli	a5,a5,0x10
    23d0:	97b6                	add	a5,a5,a3
    23d2:	0786                	slli	a5,a5,0x1
    23d4:	0007a023          	sw	zero,0(a5)
    23d8:	03000693          	li	a3,48
    23dc:	46d19023          	sh	a3,1120(gp) # 20000f80 <SaveTState>
    23e0:	bf65                	j	2398 <Out0_Process+0x98>
    23e2:	471d                	li	a4,7
    23e4:	44a1                	li	s1,8
    23e6:	fae79be3          	bne	a5,a4,239c <Out0_Process+0x9c>
    23ea:	4301a783          	lw	a5,1072(gp) # 20000f50 <pProperty>
    23ee:	47dc                	lw	a5,12(a5)
    23f0:	9782                	jalr	a5
    23f2:	b76d                	j	239c <Out0_Process+0x9c>

000023f4 <SetDeviceAddress>:
    23f4:	8181c303          	lbu	t1,-2024(gp) # 20000338 <Device_Table>
    23f8:	40006637          	lui	a2,0x40006
    23fc:	65c1                	lui	a1,0x10
    23fe:	6805                	lui	a6,0x1
    2400:	68a1                	lui	a7,0x8
    2402:	4701                	li	a4,0
    2404:	c0060613          	addi	a2,a2,-1024 # 40005c00 <_eusrstack+0x20000c00>
    2408:	15fd                	addi	a1,a1,-1
    240a:	f0f80813          	addi	a6,a6,-241 # f0f <RCC_APB2PeriphResetCmd+0x1d>
    240e:	08088893          	addi	a7,a7,128 # 8080 <_data_lma+0x2eb0>
    2412:	00676963          	bltu	a4,t1,2424 <SetDeviceAddress+0x30>
    2416:	08056513          	ori	a0,a0,128
    241a:	400067b7          	lui	a5,0x40006
    241e:	c4a7a623          	sw	a0,-948(a5) # 40005c4c <_eusrstack+0x20000c4c>
    2422:	8082                	ret
    2424:	00271693          	slli	a3,a4,0x2
    2428:	96b2                	add	a3,a3,a2
    242a:	429c                	lw	a5,0(a3)
    242c:	8fed                	and	a5,a5,a1
    242e:	0107f7b3          	and	a5,a5,a6
    2432:	8fd9                	or	a5,a5,a4
    2434:	0117e7b3          	or	a5,a5,a7
    2438:	c29c                	sw	a5,0(a3)
    243a:	0705                	addi	a4,a4,1
    243c:	bfd9                	j	2412 <SetDeviceAddress+0x1e>

0000243e <In0_Process>:
    243e:	1141                	addi	sp,sp,-16
    2440:	c422                	sw	s0,8(sp)
    2442:	4581a783          	lw	a5,1112(gp) # 20000f78 <pInformation>
    2446:	c606                	sw	ra,12(sp)
    2448:	0087c683          	lbu	a3,8(a5)
    244c:	ffe68713          	addi	a4,a3,-2 # 20002ffe <_ebss+0x1c32>
    2450:	0fd77713          	andi	a4,a4,253
    2454:	e305                	bnez	a4,2474 <In0_Process+0x36>
    2456:	f7eff0ef          	jal	ra,1bd4 <DataStageIn>
    245a:	4581a783          	lw	a5,1112(gp) # 20000f78 <pInformation>
    245e:	0087c703          	lbu	a4,8(a5)
    2462:	4581a783          	lw	a5,1112(gp) # 20000f78 <pInformation>
    2466:	00e78423          	sb	a4,8(a5)
    246a:	4422                	lw	s0,8(sp)
    246c:	40b2                	lw	ra,12(sp)
    246e:	0141                	addi	sp,sp,16
    2470:	b0dff06f          	j	1f7c <Post0_Process>
    2474:	4619                	li	a2,6
    2476:	4721                	li	a4,8
    2478:	fec695e3          	bne	a3,a2,2462 <In0_Process+0x24>
    247c:	0017c683          	lbu	a3,1(a5)
    2480:	4715                	li	a4,5
    2482:	00e69e63          	bne	a3,a4,249e <In0_Process+0x60>
    2486:	0007c703          	lbu	a4,0(a5)
    248a:	07f77713          	andi	a4,a4,127
    248e:	eb01                	bnez	a4,249e <In0_Process+0x60>
    2490:	0037c503          	lbu	a0,3(a5)
    2494:	3785                	jal	23f4 <SetDeviceAddress>
    2496:	4541a783          	lw	a5,1108(gp) # 20000f74 <pUser_Standard_Requests>
    249a:	539c                	lw	a5,32(a5)
    249c:	9782                	jalr	a5
    249e:	4301a783          	lw	a5,1072(gp) # 20000f50 <pProperty>
    24a2:	479c                	lw	a5,8(a5)
    24a4:	9782                	jalr	a5
    24a6:	4721                	li	a4,8
    24a8:	bf6d                	j	2462 <In0_Process+0x24>

000024aa <NOP_Process>:
    24aa:	8082                	ret

000024ac <USB_Init>:
    24ac:	43818793          	addi	a5,gp,1080 # 20000f58 <Device_Info>
    24b0:	44f1ac23          	sw	a5,1112(gp) # 20000f78 <pInformation>
    24b4:	4709                	li	a4,2
    24b6:	00e78423          	sb	a4,8(a5)
    24ba:	20000737          	lui	a4,0x20000
    24be:	29870693          	addi	a3,a4,664 # 20000298 <Device_Property>
    24c2:	42d1a823          	sw	a3,1072(gp) # 20000f50 <pProperty>
    24c6:	29872303          	lw	t1,664(a4)
    24ca:	200007b7          	lui	a5,0x20000
    24ce:	2f878793          	addi	a5,a5,760 # 200002f8 <User_Standard_Requests>
    24d2:	44f1aa23          	sw	a5,1108(gp) # 20000f74 <pUser_Standard_Requests>
    24d6:	8302                	jr	t1

000024d8 <CTR_LP>:
    24d8:	7179                	addi	sp,sp,-48
    24da:	ce4e                	sw	s3,28(sp)
    24dc:	cc52                	sw	s4,24(sp)
    24de:	200009b7          	lui	s3,0x20000
    24e2:	20000a37          	lui	s4,0x20000
    24e6:	d422                	sw	s0,40(sp)
    24e8:	d226                	sw	s1,36(sp)
    24ea:	d606                	sw	ra,44(sp)
    24ec:	d04a                	sw	s2,32(sp)
    24ee:	ca56                	sw	s5,20(sp)
    24f0:	00011723          	sh	zero,14(sp)
    24f4:	26098993          	addi	s3,s3,608 # 20000260 <pEpInt_IN>
    24f8:	27ca0a13          	addi	s4,s4,636 # 2000027c <pEpInt_OUT>
    24fc:	400066b7          	lui	a3,0x40006
    2500:	c446a783          	lw	a5,-956(a3) # 40005c44 <_eusrstack+0x20000c44>
    2504:	20001737          	lui	a4,0x20001
    2508:	01079613          	slli	a2,a5,0x10
    250c:	8241                	srli	a2,a2,0x10
    250e:	38c71523          	sh	a2,906(a4) # 2000138a <wIstr>
    2512:	01079613          	slli	a2,a5,0x10
    2516:	12065663          	bgez	a2,2642 <CTR_LP+0x16a>
    251a:	38a75783          	lhu	a5,906(a4)
    251e:	8932                	mv	s2,a2
    2520:	8bbd                	andi	a5,a5,15
    2522:	42f18a23          	sb	a5,1076(gp) # 20000f54 <EPindex>
    2526:	c0068613          	addi	a2,a3,-1024
    252a:	28079963          	bnez	a5,27bc <CTR_LP+0x2e4>
    252e:	c006a783          	lw	a5,-1024(a3)
    2532:	660d                	lui	a2,0x3
    2534:	65c1                	lui	a1,0x10
    2536:	07c2                	slli	a5,a5,0x10
    2538:	83c1                	srli	a5,a5,0x10
    253a:	44f19f23          	sh	a5,1118(gp) # 20000f7e <SaveRState>
    253e:	45e1d783          	lhu	a5,1118(gp) # 20000f7e <SaveRState>
    2542:	15fd                	addi	a1,a1,-1
    2544:	680d                	lui	a6,0x3
    2546:	0307f793          	andi	a5,a5,48
    254a:	46f19023          	sh	a5,1120(gp) # 20000f80 <SaveTState>
    254e:	45e1d783          	lhu	a5,1118(gp) # 20000f7e <SaveRState>
    2552:	6889                	lui	a7,0x2
    2554:	02000513          	li	a0,32
    2558:	8ff1                	and	a5,a5,a2
    255a:	44f19f23          	sh	a5,1118(gp) # 20000f7e <SaveRState>
    255e:	c006a783          	lw	a5,-1024(a3)
    2562:	6631                	lui	a2,0xc
    2564:	fbf60613          	addi	a2,a2,-65 # bfbf <_data_lma+0x6def>
    2568:	8ff1                	and	a5,a5,a2
    256a:	6609                	lui	a2,0x2
    256c:	02060613          	addi	a2,a2,32 # 2020 <Setup0_Process+0x6c>
    2570:	8fb1                	xor	a5,a5,a2
    2572:	7661                	lui	a2,0xffff8
    2574:	08060613          	addi	a2,a2,128 # ffff8080 <_eusrstack+0xdfff3080>
    2578:	8fd1                	or	a5,a5,a2
    257a:	07c2                	slli	a5,a5,0x10
    257c:	83c1                	srli	a5,a5,0x10
    257e:	c0f6a023          	sw	a5,-1024(a3)
    2582:	40006637          	lui	a2,0x40006
    2586:	c0062683          	lw	a3,-1024(a2) # 40005c00 <_eusrstack+0x20000c00>
    258a:	c0060913          	addi	s2,a2,-1024
    258e:	8eed                	and	a3,a3,a1
    2590:	0106f6b3          	and	a3,a3,a6
    2594:	0d169063          	bne	a3,a7,2654 <CTR_LP+0x17c>
    2598:	c0062683          	lw	a3,-1024(a2)
    259c:	0306f693          	andi	a3,a3,48
    25a0:	0aa69a63          	bne	a3,a0,2654 <CTR_LP+0x17c>
    25a4:	38a75783          	lhu	a5,906(a4)
    25a8:	8bc1                	andi	a5,a5,16
    25aa:	ebdd                	bnez	a5,2660 <CTR_LP+0x188>
    25ac:	00092783          	lw	a5,0(s2)
    25b0:	6725                	lui	a4,0x9
    25b2:	f0f70713          	addi	a4,a4,-241 # 8f0f <_data_lma+0x3d3f>
    25b6:	8ff9                	and	a5,a5,a4
    25b8:	00f92023          	sw	a5,0(s2)
    25bc:	3549                	jal	243e <In0_Process>
    25be:	00092783          	lw	a5,0(s2)
    25c2:	6731                	lui	a4,0xc
    25c4:	fbf70713          	addi	a4,a4,-65 # bfbf <_data_lma+0x6def>
    25c8:	8ff9                	and	a5,a5,a4
    25ca:	45e1d703          	lhu	a4,1118(gp) # 20000f7e <SaveRState>
    25ce:	01371693          	slli	a3,a4,0x13
    25d2:	0006d463          	bgez	a3,25da <CTR_LP+0x102>
    25d6:	6705                	lui	a4,0x1
    25d8:	8fb9                	xor	a5,a5,a4
    25da:	45e1d703          	lhu	a4,1118(gp) # 20000f7e <SaveRState>
    25de:	01271693          	slli	a3,a4,0x12
    25e2:	0006d463          	bgez	a3,25ea <CTR_LP+0x112>
    25e6:	6709                	lui	a4,0x2
    25e8:	8fb9                	xor	a5,a5,a4
    25ea:	4601d703          	lhu	a4,1120(gp) # 20000f80 <SaveTState>
    25ee:	8b41                	andi	a4,a4,16
    25f0:	c319                	beqz	a4,25f6 <CTR_LP+0x11e>
    25f2:	0107c793          	xori	a5,a5,16
    25f6:	4601d703          	lhu	a4,1120(gp) # 20000f80 <SaveTState>
    25fa:	02077713          	andi	a4,a4,32
    25fe:	c319                	beqz	a4,2604 <CTR_LP+0x12c>
    2600:	0207c793          	xori	a5,a5,32
    2604:	7761                	lui	a4,0xffff8
    2606:	08070713          	addi	a4,a4,128 # ffff8080 <_eusrstack+0xdfff3080>
    260a:	8fd9                	or	a5,a5,a4
    260c:	07c2                	slli	a5,a5,0x10
    260e:	83c1                	srli	a5,a5,0x10
    2610:	40006737          	lui	a4,0x40006
    2614:	6641                	lui	a2,0x10
    2616:	c0f72023          	sw	a5,-1024(a4) # 40005c00 <_eusrstack+0x20000c00>
    261a:	400066b7          	lui	a3,0x40006
    261e:	167d                	addi	a2,a2,-1
    2620:	650d                	lui	a0,0x3
    2622:	c006a703          	lw	a4,-1024(a3) # 40005c00 <_eusrstack+0x20000c00>
    2626:	45e1d583          	lhu	a1,1118(gp) # 20000f7e <SaveRState>
    262a:	8f71                	and	a4,a4,a2
    262c:	8f69                	and	a4,a4,a0
    262e:	02b71663          	bne	a4,a1,265a <CTR_LP+0x182>
    2632:	c006a703          	lw	a4,-1024(a3)
    2636:	4601d583          	lhu	a1,1120(gp) # 20000f80 <SaveTState>
    263a:	03077713          	andi	a4,a4,48
    263e:	00b71e63          	bne	a4,a1,265a <CTR_LP+0x182>
    2642:	50b2                	lw	ra,44(sp)
    2644:	5422                	lw	s0,40(sp)
    2646:	5492                	lw	s1,36(sp)
    2648:	5902                	lw	s2,32(sp)
    264a:	49f2                	lw	s3,28(sp)
    264c:	4a62                	lw	s4,24(sp)
    264e:	4ad2                	lw	s5,20(sp)
    2650:	6145                	addi	sp,sp,48
    2652:	8082                	ret
    2654:	c0f62023          	sw	a5,-1024(a2) # fc00 <_data_lma+0xaa30>
    2658:	b73d                	j	2586 <CTR_LP+0xae>
    265a:	c0f6a023          	sw	a5,-1024(a3)
    265e:	b7d1                	j	2622 <CTR_LP+0x14a>
    2660:	00092783          	lw	a5,0(s2)
    2664:	6a85                	lui	s5,0x1
    2666:	07c2                	slli	a5,a5,0x10
    2668:	83c1                	srli	a5,a5,0x10
    266a:	00f11723          	sh	a5,14(sp)
    266e:	00e15783          	lhu	a5,14(sp)
    2672:	01479713          	slli	a4,a5,0x14
    2676:	0a075063          	bgez	a4,2716 <CTR_LP+0x23e>
    267a:	00092783          	lw	a5,0(s2)
    267e:	f8fa8713          	addi	a4,s5,-113 # f8f <USART_DeInit+0x61>
    2682:	8ff9                	and	a5,a5,a4
    2684:	00f92023          	sw	a5,0(s2)
    2688:	92dff0ef          	jal	ra,1fb4 <Setup0_Process>
    268c:	00092783          	lw	a5,0(s2)
    2690:	6731                	lui	a4,0xc
    2692:	fbf70713          	addi	a4,a4,-65 # bfbf <_data_lma+0x6def>
    2696:	8ff9                	and	a5,a5,a4
    2698:	45e1d703          	lhu	a4,1118(gp) # 20000f7e <SaveRState>
    269c:	01371693          	slli	a3,a4,0x13
    26a0:	0006d463          	bgez	a3,26a8 <CTR_LP+0x1d0>
    26a4:	0157c7b3          	xor	a5,a5,s5
    26a8:	45e1d703          	lhu	a4,1118(gp) # 20000f7e <SaveRState>
    26ac:	01271693          	slli	a3,a4,0x12
    26b0:	0006d463          	bgez	a3,26b8 <CTR_LP+0x1e0>
    26b4:	6709                	lui	a4,0x2
    26b6:	8fb9                	xor	a5,a5,a4
    26b8:	4601d703          	lhu	a4,1120(gp) # 20000f80 <SaveTState>
    26bc:	8b41                	andi	a4,a4,16
    26be:	c319                	beqz	a4,26c4 <CTR_LP+0x1ec>
    26c0:	0107c793          	xori	a5,a5,16
    26c4:	4601d703          	lhu	a4,1120(gp) # 20000f80 <SaveTState>
    26c8:	02077713          	andi	a4,a4,32
    26cc:	c319                	beqz	a4,26d2 <CTR_LP+0x1fa>
    26ce:	0207c793          	xori	a5,a5,32
    26d2:	7761                	lui	a4,0xffff8
    26d4:	08070713          	addi	a4,a4,128 # ffff8080 <_eusrstack+0xdfff3080>
    26d8:	8fd9                	or	a5,a5,a4
    26da:	07c2                	slli	a5,a5,0x10
    26dc:	83c1                	srli	a5,a5,0x10
    26de:	40006737          	lui	a4,0x40006
    26e2:	6641                	lui	a2,0x10
    26e4:	c0f72023          	sw	a5,-1024(a4) # 40005c00 <_eusrstack+0x20000c00>
    26e8:	400066b7          	lui	a3,0x40006
    26ec:	167d                	addi	a2,a2,-1
    26ee:	650d                	lui	a0,0x3
    26f0:	c006a703          	lw	a4,-1024(a3) # 40005c00 <_eusrstack+0x20000c00>
    26f4:	45e1d583          	lhu	a1,1118(gp) # 20000f7e <SaveRState>
    26f8:	8f71                	and	a4,a4,a2
    26fa:	8f69                	and	a4,a4,a0
    26fc:	00b71a63          	bne	a4,a1,2710 <CTR_LP+0x238>
    2700:	c006a703          	lw	a4,-1024(a3)
    2704:	4601d583          	lhu	a1,1120(gp) # 20000f80 <SaveTState>
    2708:	03077713          	andi	a4,a4,48
    270c:	f2b70be3          	beq	a4,a1,2642 <CTR_LP+0x16a>
    2710:	c0f6a023          	sw	a5,-1024(a3)
    2714:	bff1                	j	26f0 <CTR_LP+0x218>
    2716:	00e15783          	lhu	a5,14(sp)
    271a:	07c2                	slli	a5,a5,0x10
    271c:	87c1                	srai	a5,a5,0x10
    271e:	dc07dfe3          	bgez	a5,24fc <CTR_LP+0x24>
    2722:	00092783          	lw	a5,0(s2)
    2726:	f8fa8713          	addi	a4,s5,-113
    272a:	8ff9                	and	a5,a5,a4
    272c:	00f92023          	sw	a5,0(s2)
    2730:	3ec1                	jal	2300 <Out0_Process>
    2732:	00092783          	lw	a5,0(s2)
    2736:	6731                	lui	a4,0xc
    2738:	fbf70713          	addi	a4,a4,-65 # bfbf <_data_lma+0x6def>
    273c:	8ff9                	and	a5,a5,a4
    273e:	45e1d703          	lhu	a4,1118(gp) # 20000f7e <SaveRState>
    2742:	01371693          	slli	a3,a4,0x13
    2746:	0006d463          	bgez	a3,274e <CTR_LP+0x276>
    274a:	0157c7b3          	xor	a5,a5,s5
    274e:	45e1d703          	lhu	a4,1118(gp) # 20000f7e <SaveRState>
    2752:	01271693          	slli	a3,a4,0x12
    2756:	0006d463          	bgez	a3,275e <CTR_LP+0x286>
    275a:	6709                	lui	a4,0x2
    275c:	8fb9                	xor	a5,a5,a4
    275e:	4601d703          	lhu	a4,1120(gp) # 20000f80 <SaveTState>
    2762:	8b41                	andi	a4,a4,16
    2764:	c319                	beqz	a4,276a <CTR_LP+0x292>
    2766:	0107c793          	xori	a5,a5,16
    276a:	4601d703          	lhu	a4,1120(gp) # 20000f80 <SaveTState>
    276e:	02077713          	andi	a4,a4,32
    2772:	c319                	beqz	a4,2778 <CTR_LP+0x2a0>
    2774:	0207c793          	xori	a5,a5,32
    2778:	7761                	lui	a4,0xffff8
    277a:	08070713          	addi	a4,a4,128 # ffff8080 <_eusrstack+0xdfff3080>
    277e:	8fd9                	or	a5,a5,a4
    2780:	07c2                	slli	a5,a5,0x10
    2782:	83c1                	srli	a5,a5,0x10
    2784:	40006737          	lui	a4,0x40006
    2788:	6641                	lui	a2,0x10
    278a:	c0f72023          	sw	a5,-1024(a4) # 40005c00 <_eusrstack+0x20000c00>
    278e:	400066b7          	lui	a3,0x40006
    2792:	167d                	addi	a2,a2,-1
    2794:	650d                	lui	a0,0x3
    2796:	c006a703          	lw	a4,-1024(a3) # 40005c00 <_eusrstack+0x20000c00>
    279a:	45e1d583          	lhu	a1,1118(gp) # 20000f7e <SaveRState>
    279e:	8f71                	and	a4,a4,a2
    27a0:	8f69                	and	a4,a4,a0
    27a2:	00b71a63          	bne	a4,a1,27b6 <CTR_LP+0x2de>
    27a6:	c006a703          	lw	a4,-1024(a3)
    27aa:	4601d583          	lhu	a1,1120(gp) # 20000f80 <SaveTState>
    27ae:	03077713          	andi	a4,a4,48
    27b2:	e8b708e3          	beq	a4,a1,2642 <CTR_LP+0x16a>
    27b6:	c0f6a023          	sw	a5,-1024(a3)
    27ba:	bff1                	j	2796 <CTR_LP+0x2be>
    27bc:	00279713          	slli	a4,a5,0x2
    27c0:	9732                	add	a4,a4,a2
    27c2:	4314                	lw	a3,0(a4)
    27c4:	06c2                	slli	a3,a3,0x10
    27c6:	82c1                	srli	a3,a3,0x10
    27c8:	00d11723          	sh	a3,14(sp)
    27cc:	00e15683          	lhu	a3,14(sp)
    27d0:	06c2                	slli	a3,a3,0x10
    27d2:	86c1                	srai	a3,a3,0x10
    27d4:	0006dd63          	bgez	a3,27ee <CTR_LP+0x316>
    27d8:	17fd                	addi	a5,a5,-1
    27da:	4314                	lw	a3,0(a4)
    27dc:	078a                	slli	a5,a5,0x2
    27de:	6605                	lui	a2,0x1
    27e0:	97d2                	add	a5,a5,s4
    27e2:	f8f60613          	addi	a2,a2,-113 # f8f <USART_DeInit+0x61>
    27e6:	439c                	lw	a5,0(a5)
    27e8:	8ef1                	and	a3,a3,a2
    27ea:	c314                	sw	a3,0(a4)
    27ec:	9782                	jalr	a5
    27ee:	00e15783          	lhu	a5,14(sp)
    27f2:	0807f793          	andi	a5,a5,128
    27f6:	d00783e3          	beqz	a5,24fc <CTR_LP+0x24>
    27fa:	4341c783          	lbu	a5,1076(gp) # 20000f54 <EPindex>
    27fe:	400066b7          	lui	a3,0x40006
    2802:	c0068693          	addi	a3,a3,-1024 # 40005c00 <_eusrstack+0x20000c00>
    2806:	00279713          	slli	a4,a5,0x2
    280a:	9736                	add	a4,a4,a3
    280c:	17fd                	addi	a5,a5,-1
    280e:	4314                	lw	a3,0(a4)
    2810:	078a                	slli	a5,a5,0x2
    2812:	97ce                	add	a5,a5,s3
    2814:	6625                	lui	a2,0x9
    2816:	f0f60613          	addi	a2,a2,-241 # 8f0f <_data_lma+0x3d3f>
    281a:	439c                	lw	a5,0(a5)
    281c:	8ef1                	and	a3,a3,a2
    281e:	c314                	sw	a3,0(a4)
    2820:	9782                	jalr	a5
    2822:	b9e9                	j	24fc <CTR_LP+0x24>

00002824 <UserToPMABufferCopy>:
    2824:	200037b7          	lui	a5,0x20003
    2828:	0605                	addi	a2,a2,1
    282a:	95be                	add	a1,a1,a5
    282c:	8605                	srai	a2,a2,0x1
    282e:	0586                	slli	a1,a1,0x1
    2830:	e211                	bnez	a2,2834 <UserToPMABufferCopy+0x10>
    2832:	8082                	ret
    2834:	00154783          	lbu	a5,1(a0) # 3001 <USBD_init+0x1b>
    2838:	00054703          	lbu	a4,0(a0)
    283c:	0591                	addi	a1,a1,4
    283e:	07a2                	slli	a5,a5,0x8
    2840:	8fd9                	or	a5,a5,a4
    2842:	fef59e23          	sh	a5,-4(a1) # fffc <_data_lma+0xae2c>
    2846:	0509                	addi	a0,a0,2
    2848:	167d                	addi	a2,a2,-1
    284a:	b7dd                	j	2830 <UserToPMABufferCopy+0xc>

0000284c <PMAToUserBufferCopy>:
    284c:	200037b7          	lui	a5,0x20003
    2850:	0605                	addi	a2,a2,1
    2852:	95be                	add	a1,a1,a5
    2854:	8605                	srai	a2,a2,0x1
    2856:	0586                	slli	a1,a1,0x1
    2858:	e211                	bnez	a2,285c <PMAToUserBufferCopy+0x10>
    285a:	8082                	ret
    285c:	419c                	lw	a5,0(a1)
    285e:	0509                	addi	a0,a0,2
    2860:	167d                	addi	a2,a2,-1
    2862:	fef51f23          	sh	a5,-2(a0)
    2866:	0591                	addi	a1,a1,4
    2868:	bfc5                	j	2858 <PMAToUserBufferCopy+0xc>

0000286a <SetBTABLE>:
    286a:	9961                	andi	a0,a0,-8
    286c:	0542                	slli	a0,a0,0x10
    286e:	8141                	srli	a0,a0,0x10
    2870:	400067b7          	lui	a5,0x40006
    2874:	c4a7a823          	sw	a0,-944(a5) # 40005c50 <_eusrstack+0x20000c50>
    2878:	8082                	ret

0000287a <SetEPType>:
    287a:	400067b7          	lui	a5,0x40006
    287e:	c0078793          	addi	a5,a5,-1024 # 40005c00 <_eusrstack+0x20000c00>
    2882:	050a                	slli	a0,a0,0x2
    2884:	953e                	add	a0,a0,a5
    2886:	411c                	lw	a5,0(a0)
    2888:	7765                	lui	a4,0xffff9
    288a:	98f70713          	addi	a4,a4,-1649 # ffff898f <_eusrstack+0xdfff398f>
    288e:	8ff9                	and	a5,a5,a4
    2890:	8ddd                	or	a1,a1,a5
    2892:	05c2                	slli	a1,a1,0x10
    2894:	81c1                	srli	a1,a1,0x10
    2896:	c10c                	sw	a1,0(a0)
    2898:	8082                	ret

0000289a <SetEPTxStatus>:
    289a:	400067b7          	lui	a5,0x40006
    289e:	c0078793          	addi	a5,a5,-1024 # 40005c00 <_eusrstack+0x20000c00>
    28a2:	050a                	slli	a0,a0,0x2
    28a4:	953e                	add	a0,a0,a5
    28a6:	411c                	lw	a5,0(a0)
    28a8:	7765                	lui	a4,0xffff9
    28aa:	fbf70713          	addi	a4,a4,-65 # ffff8fbf <_eusrstack+0xdfff3fbf>
    28ae:	8ff9                	and	a5,a5,a4
    28b0:	07c2                	slli	a5,a5,0x10
    28b2:	0105f713          	andi	a4,a1,16
    28b6:	83c1                	srli	a5,a5,0x10
    28b8:	c319                	beqz	a4,28be <SetEPTxStatus+0x24>
    28ba:	0107c793          	xori	a5,a5,16
    28be:	0205f713          	andi	a4,a1,32
    28c2:	c319                	beqz	a4,28c8 <SetEPTxStatus+0x2e>
    28c4:	0207c793          	xori	a5,a5,32
    28c8:	7761                	lui	a4,0xffff8
    28ca:	08070713          	addi	a4,a4,128 # ffff8080 <_eusrstack+0xdfff3080>
    28ce:	8fd9                	or	a5,a5,a4
    28d0:	07c2                	slli	a5,a5,0x10
    28d2:	83c1                	srli	a5,a5,0x10
    28d4:	c11c                	sw	a5,0(a0)
    28d6:	4118                	lw	a4,0(a0)
    28d8:	03077713          	andi	a4,a4,48
    28dc:	feb71ce3          	bne	a4,a1,28d4 <SetEPTxStatus+0x3a>
    28e0:	8082                	ret

000028e2 <SetEPRxStatus>:
    28e2:	400067b7          	lui	a5,0x40006
    28e6:	c0078793          	addi	a5,a5,-1024 # 40005c00 <_eusrstack+0x20000c00>
    28ea:	050a                	slli	a0,a0,0x2
    28ec:	953e                	add	a0,a0,a5
    28ee:	411c                	lw	a5,0(a0)
    28f0:	7771                	lui	a4,0xffffc
    28f2:	f8f70713          	addi	a4,a4,-113 # ffffbf8f <_eusrstack+0xdfff6f8f>
    28f6:	8ff9                	and	a5,a5,a4
    28f8:	07c2                	slli	a5,a5,0x10
    28fa:	01359713          	slli	a4,a1,0x13
    28fe:	83c1                	srli	a5,a5,0x10
    2900:	00075463          	bgez	a4,2908 <SetEPRxStatus+0x26>
    2904:	6705                	lui	a4,0x1
    2906:	8fb9                	xor	a5,a5,a4
    2908:	01259713          	slli	a4,a1,0x12
    290c:	00075463          	bgez	a4,2914 <SetEPRxStatus+0x32>
    2910:	6709                	lui	a4,0x2
    2912:	8fb9                	xor	a5,a5,a4
    2914:	7761                	lui	a4,0xffff8
    2916:	08070713          	addi	a4,a4,128 # ffff8080 <_eusrstack+0xdfff3080>
    291a:	8fd9                	or	a5,a5,a4
    291c:	07c2                	slli	a5,a5,0x10
    291e:	83c1                	srli	a5,a5,0x10
    2920:	66c1                	lui	a3,0x10
    2922:	c11c                	sw	a5,0(a0)
    2924:	16fd                	addi	a3,a3,-1
    2926:	660d                	lui	a2,0x3
    2928:	4118                	lw	a4,0(a0)
    292a:	8f75                	and	a4,a4,a3
    292c:	8f71                	and	a4,a4,a2
    292e:	00b71363          	bne	a4,a1,2934 <SetEPRxStatus+0x52>
    2932:	8082                	ret
    2934:	c11c                	sw	a5,0(a0)
    2936:	bfcd                	j	2928 <SetEPRxStatus+0x46>

00002938 <SetEPTxValid>:
    2938:	400067b7          	lui	a5,0x40006
    293c:	c0078793          	addi	a5,a5,-1024 # 40005c00 <_eusrstack+0x20000c00>
    2940:	050a                	slli	a0,a0,0x2
    2942:	953e                	add	a0,a0,a5
    2944:	411c                	lw	a5,0(a0)
    2946:	7765                	lui	a4,0xffff9
    2948:	fbf70713          	addi	a4,a4,-65 # ffff8fbf <_eusrstack+0xdfff3fbf>
    294c:	8ff9                	and	a5,a5,a4
    294e:	07c2                	slli	a5,a5,0x10
    2950:	83c1                	srli	a5,a5,0x10
    2952:	7761                	lui	a4,0xffff8
    2954:	0307c793          	xori	a5,a5,48
    2958:	08070713          	addi	a4,a4,128 # ffff8080 <_eusrstack+0xdfff3080>
    295c:	8fd9                	or	a5,a5,a4
    295e:	07c2                	slli	a5,a5,0x10
    2960:	83c1                	srli	a5,a5,0x10
    2962:	c11c                	sw	a5,0(a0)
    2964:	03000693          	li	a3,48
    2968:	4118                	lw	a4,0(a0)
    296a:	03077713          	andi	a4,a4,48
    296e:	00d71363          	bne	a4,a3,2974 <SetEPTxValid+0x3c>
    2972:	8082                	ret
    2974:	c11c                	sw	a5,0(a0)
    2976:	bfcd                	j	2968 <SetEPTxValid+0x30>

00002978 <SetEPRxValid>:
    2978:	400067b7          	lui	a5,0x40006
    297c:	c0078793          	addi	a5,a5,-1024 # 40005c00 <_eusrstack+0x20000c00>
    2980:	050a                	slli	a0,a0,0x2
    2982:	953e                	add	a0,a0,a5
    2984:	411c                	lw	a5,0(a0)
    2986:	7771                	lui	a4,0xffffc
    2988:	f8f70713          	addi	a4,a4,-113 # ffffbf8f <_eusrstack+0xdfff6f8f>
    298c:	8ff9                	and	a5,a5,a4
    298e:	07c2                	slli	a5,a5,0x10
    2990:	670d                	lui	a4,0x3
    2992:	83c1                	srli	a5,a5,0x10
    2994:	8fb9                	xor	a5,a5,a4
    2996:	7761                	lui	a4,0xffff8
    2998:	08070713          	addi	a4,a4,128 # ffff8080 <_eusrstack+0xdfff3080>
    299c:	8fd9                	or	a5,a5,a4
    299e:	07c2                	slli	a5,a5,0x10
    29a0:	83c1                	srli	a5,a5,0x10
    29a2:	66c1                	lui	a3,0x10
    29a4:	c11c                	sw	a5,0(a0)
    29a6:	16fd                	addi	a3,a3,-1
    29a8:	660d                	lui	a2,0x3
    29aa:	4118                	lw	a4,0(a0)
    29ac:	8f75                	and	a4,a4,a3
    29ae:	8f71                	and	a4,a4,a2
    29b0:	00c71363          	bne	a4,a2,29b6 <SetEPRxValid+0x3e>
    29b4:	8082                	ret
    29b6:	c11c                	sw	a5,0(a0)
    29b8:	bfcd                	j	29aa <SetEPRxValid+0x32>

000029ba <ClearEP_KIND>:
    29ba:	400067b7          	lui	a5,0x40006
    29be:	c0078793          	addi	a5,a5,-1024 # 40005c00 <_eusrstack+0x20000c00>
    29c2:	050a                	slli	a0,a0,0x2
    29c4:	953e                	add	a0,a0,a5
    29c6:	411c                	lw	a5,0(a0)
    29c8:	6705                	lui	a4,0x1
    29ca:	e0f70713          	addi	a4,a4,-497 # e0f <RCC_GetClocksFreq+0x1f>
    29ce:	8ff9                	and	a5,a5,a4
    29d0:	7761                	lui	a4,0xffff8
    29d2:	08070713          	addi	a4,a4,128 # ffff8080 <_eusrstack+0xdfff3080>
    29d6:	8fd9                	or	a5,a5,a4
    29d8:	07c2                	slli	a5,a5,0x10
    29da:	83c1                	srli	a5,a5,0x10
    29dc:	c11c                	sw	a5,0(a0)
    29de:	8082                	ret

000029e0 <Clear_Status_Out>:
    29e0:	bfe9                	j	29ba <ClearEP_KIND>

000029e2 <ClearDTOG_RX>:
    29e2:	400067b7          	lui	a5,0x40006
    29e6:	c0078793          	addi	a5,a5,-1024 # 40005c00 <_eusrstack+0x20000c00>
    29ea:	050a                	slli	a0,a0,0x2
    29ec:	953e                	add	a0,a0,a5
    29ee:	4114                	lw	a3,0(a0)
    29f0:	67c1                	lui	a5,0x10
    29f2:	fff78713          	addi	a4,a5,-1 # ffff <_data_lma+0xae2f>
    29f6:	01169793          	slli	a5,a3,0x11
    29fa:	0007dd63          	bgez	a5,2a14 <ClearDTOG_RX+0x32>
    29fe:	411c                	lw	a5,0(a0)
    2a00:	8ff9                	and	a5,a5,a4
    2a02:	6705                	lui	a4,0x1
    2a04:	f0f70713          	addi	a4,a4,-241 # f0f <RCC_APB2PeriphResetCmd+0x1d>
    2a08:	8ff9                	and	a5,a5,a4
    2a0a:	6731                	lui	a4,0xc
    2a0c:	08070713          	addi	a4,a4,128 # c080 <_data_lma+0x6eb0>
    2a10:	8fd9                	or	a5,a5,a4
    2a12:	c11c                	sw	a5,0(a0)
    2a14:	8082                	ret

00002a16 <ClearDTOG_TX>:
    2a16:	400067b7          	lui	a5,0x40006
    2a1a:	c0078793          	addi	a5,a5,-1024 # 40005c00 <_eusrstack+0x20000c00>
    2a1e:	050a                	slli	a0,a0,0x2
    2a20:	953e                	add	a0,a0,a5
    2a22:	411c                	lw	a5,0(a0)
    2a24:	0407f793          	andi	a5,a5,64
    2a28:	cf91                	beqz	a5,2a44 <ClearDTOG_TX+0x2e>
    2a2a:	411c                	lw	a5,0(a0)
    2a2c:	6741                	lui	a4,0x10
    2a2e:	177d                	addi	a4,a4,-1
    2a30:	8ff9                	and	a5,a5,a4
    2a32:	6705                	lui	a4,0x1
    2a34:	f0f70713          	addi	a4,a4,-241 # f0f <RCC_APB2PeriphResetCmd+0x1d>
    2a38:	8ff9                	and	a5,a5,a4
    2a3a:	6721                	lui	a4,0x8
    2a3c:	0c070713          	addi	a4,a4,192 # 80c0 <_data_lma+0x2ef0>
    2a40:	8fd9                	or	a5,a5,a4
    2a42:	c11c                	sw	a5,0(a0)
    2a44:	8082                	ret

00002a46 <SetEPTxAddr>:
    2a46:	400067b7          	lui	a5,0x40006
    2a4a:	c507a783          	lw	a5,-944(a5) # 40005c50 <_eusrstack+0x20000c50>
    2a4e:	050e                	slli	a0,a0,0x3
    2a50:	8185                	srli	a1,a1,0x1
    2a52:	07c2                	slli	a5,a5,0x10
    2a54:	83c1                	srli	a5,a5,0x10
    2a56:	953e                	add	a0,a0,a5
    2a58:	200037b7          	lui	a5,0x20003
    2a5c:	953e                	add	a0,a0,a5
    2a5e:	0506                	slli	a0,a0,0x1
    2a60:	0586                	slli	a1,a1,0x1
    2a62:	c10c                	sw	a1,0(a0)
    2a64:	8082                	ret

00002a66 <SetEPRxAddr>:
    2a66:	400067b7          	lui	a5,0x40006
    2a6a:	c507a783          	lw	a5,-944(a5) # 40005c50 <_eusrstack+0x20000c50>
    2a6e:	050e                	slli	a0,a0,0x3
    2a70:	8185                	srli	a1,a1,0x1
    2a72:	07c2                	slli	a5,a5,0x10
    2a74:	83c1                	srli	a5,a5,0x10
    2a76:	953e                	add	a0,a0,a5
    2a78:	200037b7          	lui	a5,0x20003
    2a7c:	0791                	addi	a5,a5,4
    2a7e:	953e                	add	a0,a0,a5
    2a80:	0506                	slli	a0,a0,0x1
    2a82:	0586                	slli	a1,a1,0x1
    2a84:	c10c                	sw	a1,0(a0)
    2a86:	8082                	ret

00002a88 <GetEPTxAddr>:
    2a88:	400067b7          	lui	a5,0x40006
    2a8c:	c507a783          	lw	a5,-944(a5) # 40005c50 <_eusrstack+0x20000c50>
    2a90:	050e                	slli	a0,a0,0x3
    2a92:	07c2                	slli	a5,a5,0x10
    2a94:	83c1                	srli	a5,a5,0x10
    2a96:	953e                	add	a0,a0,a5
    2a98:	200037b7          	lui	a5,0x20003
    2a9c:	953e                	add	a0,a0,a5
    2a9e:	0506                	slli	a0,a0,0x1
    2aa0:	00055503          	lhu	a0,0(a0)
    2aa4:	8082                	ret

00002aa6 <GetEPRxAddr>:
    2aa6:	400067b7          	lui	a5,0x40006
    2aaa:	c507a783          	lw	a5,-944(a5) # 40005c50 <_eusrstack+0x20000c50>
    2aae:	050e                	slli	a0,a0,0x3
    2ab0:	07c2                	slli	a5,a5,0x10
    2ab2:	83c1                	srli	a5,a5,0x10
    2ab4:	953e                	add	a0,a0,a5
    2ab6:	200037b7          	lui	a5,0x20003
    2aba:	0791                	addi	a5,a5,4
    2abc:	953e                	add	a0,a0,a5
    2abe:	0506                	slli	a0,a0,0x1
    2ac0:	00055503          	lhu	a0,0(a0)
    2ac4:	8082                	ret

00002ac6 <SetEPTxCount>:
    2ac6:	400067b7          	lui	a5,0x40006
    2aca:	c507a783          	lw	a5,-944(a5) # 40005c50 <_eusrstack+0x20000c50>
    2ace:	050e                	slli	a0,a0,0x3
    2ad0:	07c2                	slli	a5,a5,0x10
    2ad2:	83c1                	srli	a5,a5,0x10
    2ad4:	953e                	add	a0,a0,a5
    2ad6:	200037b7          	lui	a5,0x20003
    2ada:	0789                	addi	a5,a5,2
    2adc:	953e                	add	a0,a0,a5
    2ade:	0506                	slli	a0,a0,0x1
    2ae0:	c10c                	sw	a1,0(a0)
    2ae2:	8082                	ret

00002ae4 <SetEPRxCount>:
    2ae4:	400067b7          	lui	a5,0x40006
    2ae8:	c507a783          	lw	a5,-944(a5) # 40005c50 <_eusrstack+0x20000c50>
    2aec:	050e                	slli	a0,a0,0x3
    2aee:	07c2                	slli	a5,a5,0x10
    2af0:	83c1                	srli	a5,a5,0x10
    2af2:	953e                	add	a0,a0,a5
    2af4:	200037b7          	lui	a5,0x20003
    2af8:	0799                	addi	a5,a5,6
    2afa:	953e                	add	a0,a0,a5
    2afc:	03e00793          	li	a5,62
    2b00:	0506                	slli	a0,a0,0x1
    2b02:	00b7fe63          	bgeu	a5,a1,2b1e <SetEPRxCount+0x3a>
    2b06:	0055d793          	srli	a5,a1,0x5
    2b0a:	89fd                	andi	a1,a1,31
    2b0c:	e581                	bnez	a1,2b14 <SetEPRxCount+0x30>
    2b0e:	17fd                	addi	a5,a5,-1
    2b10:	07c2                	slli	a5,a5,0x10
    2b12:	83c1                	srli	a5,a5,0x10
    2b14:	07aa                	slli	a5,a5,0xa
    2b16:	6721                	lui	a4,0x8
    2b18:	8fd9                	or	a5,a5,a4
    2b1a:	c11c                	sw	a5,0(a0)
    2b1c:	8082                	ret
    2b1e:	0015d793          	srli	a5,a1,0x1
    2b22:	8985                	andi	a1,a1,1
    2b24:	c191                	beqz	a1,2b28 <SetEPRxCount+0x44>
    2b26:	0785                	addi	a5,a5,1
    2b28:	07aa                	slli	a5,a5,0xa
    2b2a:	bfc5                	j	2b1a <SetEPRxCount+0x36>

00002b2c <GetEPRxCount>:
    2b2c:	400067b7          	lui	a5,0x40006
    2b30:	c507a783          	lw	a5,-944(a5) # 40005c50 <_eusrstack+0x20000c50>
    2b34:	050e                	slli	a0,a0,0x3
    2b36:	07c2                	slli	a5,a5,0x10
    2b38:	83c1                	srli	a5,a5,0x10
    2b3a:	953e                	add	a0,a0,a5
    2b3c:	200037b7          	lui	a5,0x20003
    2b40:	0799                	addi	a5,a5,6
    2b42:	953e                	add	a0,a0,a5
    2b44:	0506                	slli	a0,a0,0x1
    2b46:	4108                	lw	a0,0(a0)
    2b48:	3ff57513          	andi	a0,a0,1023
    2b4c:	8082                	ret

00002b4e <ByteSwap>:
    2b4e:	00855793          	srli	a5,a0,0x8
    2b52:	0ff57513          	andi	a0,a0,255
    2b56:	0522                	slli	a0,a0,0x8
    2b58:	8d5d                	or	a0,a0,a5
    2b5a:	8082                	ret

00002b5c <USB_SIL_Init>:
    2b5c:	40006737          	lui	a4,0x40006
    2b60:	77f1                	lui	a5,0xffffc
    2b62:	c4072223          	sw	zero,-956(a4) # 40005c44 <_eusrstack+0x20000c44>
    2b66:	f0078793          	addi	a5,a5,-256 # ffffbf00 <_eusrstack+0xdfff6f00>
    2b6a:	44f19e23          	sh	a5,1116(gp) # 20000f7c <wInterrupt_Mask>
    2b6e:	67b1                	lui	a5,0xc
    2b70:	f0078793          	addi	a5,a5,-256 # bf00 <_data_lma+0x6d30>
    2b74:	c4f72023          	sw	a5,-960(a4)
    2b78:	4501                	li	a0,0
    2b7a:	8082                	ret

00002b7c <USB_SIL_Read>:
    2b7c:	1141                	addi	sp,sp,-16
    2b7e:	c226                	sw	s1,4(sp)
    2b80:	07f57493          	andi	s1,a0,127
    2b84:	8526                	mv	a0,s1
    2b86:	c606                	sw	ra,12(sp)
    2b88:	c422                	sw	s0,8(sp)
    2b8a:	c04a                	sw	s2,0(sp)
    2b8c:	892e                	mv	s2,a1
    2b8e:	3f79                	jal	2b2c <GetEPRxCount>
    2b90:	842a                	mv	s0,a0
    2b92:	8526                	mv	a0,s1
    2b94:	3f09                	jal	2aa6 <GetEPRxAddr>
    2b96:	8622                	mv	a2,s0
    2b98:	85aa                	mv	a1,a0
    2b9a:	854a                	mv	a0,s2
    2b9c:	3945                	jal	284c <PMAToUserBufferCopy>
    2b9e:	8522                	mv	a0,s0
    2ba0:	40b2                	lw	ra,12(sp)
    2ba2:	4422                	lw	s0,8(sp)
    2ba4:	4492                	lw	s1,4(sp)
    2ba6:	4902                	lw	s2,0(sp)
    2ba8:	0141                	addi	sp,sp,16
    2baa:	8082                	ret

00002bac <USBWakeUp_IRQHandler>:
    2bac:	00040537          	lui	a0,0x40
    2bb0:	f79fd0ef          	jal	ra,b28 <EXTI_ClearITPendingBit>
    2bb4:	30200073          	mret

00002bb8 <USB_LP_CAN1_RX0_IRQHandler>:
    2bb8:	22c9                	jal	2d7a <USB_Istr>
    2bba:	30200073          	mret

00002bbe <Set_USBConfig>:
    2bbe:	1141                	addi	sp,sp,-16
    2bc0:	4509                	li	a0,2
    2bc2:	c606                	sw	ra,12(sp)
    2bc4:	a12fe0ef          	jal	ra,dd6 <RCC_USBCLKConfig>
    2bc8:	40b2                	lw	ra,12(sp)
    2bca:	4585                	li	a1,1
    2bcc:	00800537          	lui	a0,0x800
    2bd0:	0141                	addi	sp,sp,16
    2bd2:	b02fe06f          	j	ed4 <RCC_APB1PeriphClockCmd>

00002bd6 <Enter_LowPowerMode>:
    2bd6:	470d                	li	a4,3
    2bd8:	84e1a823          	sw	a4,-1968(gp) # 20000370 <bDeviceState>
    2bdc:	8082                	ret

00002bde <Leave_LowPowerMode>:
    2bde:	4421c703          	lbu	a4,1090(gp) # 20000f62 <Device_Info+0xa>
    2be2:	c709                	beqz	a4,2bec <Leave_LowPowerMode+0xe>
    2be4:	4715                	li	a4,5
    2be6:	84e1a823          	sw	a4,-1968(gp) # 20000370 <bDeviceState>
    2bea:	8082                	ret
    2bec:	4705                	li	a4,1
    2bee:	bfe5                	j	2be6 <Leave_LowPowerMode+0x8>

00002bf0 <USB_Interrupts_Config>:
    2bf0:	7179                	addi	sp,sp,-48
    2bf2:	00040537          	lui	a0,0x40
    2bf6:	d606                	sw	ra,44(sp)
    2bf8:	d422                	sw	s0,40(sp)
    2bfa:	f2ffd0ef          	jal	ra,b28 <EXTI_ClearITPendingBit>
    2bfe:	000407b7          	lui	a5,0x40
    2c02:	c83e                	sw	a5,16(sp)
    2c04:	4405                	li	s0,1
    2c06:	47c1                	li	a5,16
    2c08:	0808                	addi	a0,sp,16
    2c0a:	cc3e                	sw	a5,24(sp)
    2c0c:	ce22                	sw	s0,28(sp)
    2c0e:	ca02                	sw	zero,20(sp)
    2c10:	eaffd0ef          	jal	ra,abe <EXTI_Init>
    2c14:	12400793          	li	a5,292
    2c18:	0028                	addi	a0,sp,8
    2c1a:	00f11423          	sh	a5,8(sp)
    2c1e:	c622                	sw	s0,12(sp)
    2c20:	00010523          	sb	zero,10(sp)
    2c24:	8e4fe0ef          	jal	ra,d08 <NVIC_Init>
    2c28:	03a00793          	li	a5,58
    2c2c:	0028                	addi	a0,sp,8
    2c2e:	00f11423          	sh	a5,8(sp)
    2c32:	8d6fe0ef          	jal	ra,d08 <NVIC_Init>
    2c36:	50b2                	lw	ra,44(sp)
    2c38:	5422                	lw	s0,40(sp)
    2c3a:	6145                	addi	sp,sp,48
    2c3c:	8082                	ret

00002c3e <USB_Port_Set>:
    2c3e:	1141                	addi	sp,sp,-16
    2c40:	c422                	sw	s0,8(sp)
    2c42:	c226                	sw	s1,4(sp)
    2c44:	842e                	mv	s0,a1
    2c46:	84aa                	mv	s1,a0
    2c48:	4585                	li	a1,1
    2c4a:	4511                	li	a0,4
    2c4c:	c606                	sw	ra,12(sp)
    2c4e:	a68fe0ef          	jal	ra,eb6 <RCC_APB2PeriphClockCmd>
    2c52:	c0ad                	beqz	s1,2cb4 <USB_Port_Set+0x76>
    2c54:	400066b7          	lui	a3,0x40006
    2c58:	c406a783          	lw	a5,-960(a3) # 40005c40 <_eusrstack+0x20000c40>
    2c5c:	6741                	lui	a4,0x10
    2c5e:	1775                	addi	a4,a4,-3
    2c60:	8ff9                	and	a5,a5,a4
    2c62:	c4f6a023          	sw	a5,-960(a3)
    2c66:	400117b7          	lui	a5,0x40011
    2c6a:	8047a703          	lw	a4,-2044(a5) # 40010804 <_eusrstack+0x2000b804>
    2c6e:	fff016b7          	lui	a3,0xfff01
    2c72:	16fd                	addi	a3,a3,-1
    2c74:	8f75                	and	a4,a4,a3
    2c76:	80e7a223          	sw	a4,-2044(a5)
    2c7a:	80c7a703          	lw	a4,-2036(a5)
    2c7e:	76f9                	lui	a3,0xffffe
    2c80:	7ff68693          	addi	a3,a3,2047 # ffffe7ff <_eusrstack+0xdfff97ff>
    2c84:	8f75                	and	a4,a4,a3
    2c86:	80e7a623          	sw	a4,-2036(a5)
    2c8a:	8047a703          	lw	a4,-2044(a5)
    2c8e:	000446b7          	lui	a3,0x44
    2c92:	8f55                	or	a4,a4,a3
    2c94:	80e7a223          	sw	a4,-2044(a5)
    2c98:	40024737          	lui	a4,0x40024
    2c9c:	80072783          	lw	a5,-2048(a4) # 40023800 <_eusrstack+0x2001e800>
    2ca0:	c839                	beqz	s0,2cf6 <USB_Port_Set+0xb8>
    2ca2:	0027e793          	ori	a5,a5,2
    2ca6:	40b2                	lw	ra,12(sp)
    2ca8:	4422                	lw	s0,8(sp)
    2caa:	80f72023          	sw	a5,-2048(a4)
    2cae:	4492                	lw	s1,4(sp)
    2cb0:	0141                	addi	sp,sp,16
    2cb2:	8082                	ret
    2cb4:	40006737          	lui	a4,0x40006
    2cb8:	c4072783          	lw	a5,-960(a4) # 40005c40 <_eusrstack+0x20000c40>
    2cbc:	fff016b7          	lui	a3,0xfff01
    2cc0:	16fd                	addi	a3,a3,-1
    2cc2:	0027e793          	ori	a5,a5,2
    2cc6:	07c2                	slli	a5,a5,0x10
    2cc8:	83c1                	srli	a5,a5,0x10
    2cca:	c4f72023          	sw	a5,-960(a4)
    2cce:	400117b7          	lui	a5,0x40011
    2cd2:	8047a703          	lw	a4,-2044(a5) # 40010804 <_eusrstack+0x2000b804>
    2cd6:	8f75                	and	a4,a4,a3
    2cd8:	80e7a223          	sw	a4,-2044(a5)
    2cdc:	80c7a703          	lw	a4,-2036(a5)
    2ce0:	76f9                	lui	a3,0xffffe
    2ce2:	7ff68693          	addi	a3,a3,2047 # ffffe7ff <_eusrstack+0xdfff97ff>
    2ce6:	8f75                	and	a4,a4,a3
    2ce8:	80e7a623          	sw	a4,-2036(a5)
    2cec:	8047a703          	lw	a4,-2044(a5)
    2cf0:	000336b7          	lui	a3,0x33
    2cf4:	bf79                	j	2c92 <USB_Port_Set+0x54>
    2cf6:	9bf5                	andi	a5,a5,-3
    2cf8:	b77d                	j	2ca6 <USB_Port_Set+0x68>

00002cfa <EP1_IN_Callback>:
    2cfa:	82018823          	sb	zero,-2000(gp) # 20000350 <Endp1Busy>
    2cfe:	8082                	ret

00002d00 <EP2_IN_Callback>:
    2d00:	820188a3          	sb	zero,-1999(gp) # 20000351 <Endp2Busy>
    2d04:	8082                	ret

00002d06 <EP1_OUT_Callback>:
    2d06:	8082                	ret

00002d08 <EP2_OUT_Callback>:
    2d08:	1101                	addi	sp,sp,-32
    2d0a:	cc22                	sw	s0,24(sp)
    2d0c:	c64e                	sw	s3,12(sp)
    2d0e:	d1418413          	addi	s0,gp,-748 # 20000834 <HID_Data>
    2d12:	c9418593          	addi	a1,gp,-876 # 200007b4 <HIDRxBuffer>
    2d16:	4509                	li	a0,2
    2d18:	ce06                	sw	ra,28(sp)
    2d1a:	ca26                	sw	s1,20(sp)
    2d1c:	c84a                	sw	s2,16(sp)
    2d1e:	3db9                	jal	2b7c <USB_SIL_Read>
    2d20:	00045483          	lhu	s1,0(s0)
    2d24:	892a                	mv	s2,a0
    2d26:	20001537          	lui	a0,0x20001
    2d2a:	f8450513          	addi	a0,a0,-124 # 20000f84 <HID_Data_Buff>
    2d2e:	0ff97613          	andi	a2,s2,255
    2d32:	0ff97913          	andi	s2,s2,255
    2d36:	c408                	sw	a0,8(s0)
    2d38:	c9418593          	addi	a1,gp,-876 # 200007b4 <HIDRxBuffer>
    2d3c:	9526                	add	a0,a0,s1
    2d3e:	94ca                	add	s1,s1,s2
    2d40:	549010ef          	jal	ra,4a88 <memcpy>
    2d44:	00941023          	sh	s1,0(s0)
    2d48:	4462                	lw	s0,24(sp)
    2d4a:	40f2                	lw	ra,28(sp)
    2d4c:	44d2                	lw	s1,20(sp)
    2d4e:	4942                	lw	s2,16(sp)
    2d50:	49b2                	lw	s3,12(sp)
    2d52:	4509                	li	a0,2
    2d54:	6105                	addi	sp,sp,32
    2d56:	c23ff06f          	j	2978 <SetEPRxValid>

00002d5a <SOF_Callback>:
    2d5a:	8501a683          	lw	a3,-1968(gp) # 20000370 <bDeviceState>
    2d5e:	4795                	li	a5,5
    2d60:	00f69c63          	bne	a3,a5,2d78 <SOF_Callback+0x1e>
    2d64:	83418793          	addi	a5,gp,-1996 # 20000354 <FrameCount.5627>
    2d68:	4398                	lw	a4,0(a5)
    2d6a:	00d70563          	beq	a4,a3,2d74 <SOF_Callback+0x1a>
    2d6e:	0705                	addi	a4,a4,1
    2d70:	c398                	sw	a4,0(a5)
    2d72:	8082                	ret
    2d74:	0007a023          	sw	zero,0(a5)
    2d78:	8082                	ret

00002d7a <USB_Istr>:
    2d7a:	40006737          	lui	a4,0x40006
    2d7e:	c4472783          	lw	a5,-956(a4) # 40005c44 <_eusrstack+0x20000c44>
    2d82:	7179                	addi	sp,sp,-48
    2d84:	d422                	sw	s0,40(sp)
    2d86:	07c2                	slli	a5,a5,0x10
    2d88:	83c1                	srli	a5,a5,0x10
    2d8a:	20001437          	lui	s0,0x20001
    2d8e:	d226                	sw	s1,36(sp)
    2d90:	38f41523          	sh	a5,906(s0) # 2000138a <wIstr>
    2d94:	38a45783          	lhu	a5,906(s0)
    2d98:	45c1d683          	lhu	a3,1116(gp) # 20000f7c <wInterrupt_Mask>
    2d9c:	d606                	sw	ra,44(sp)
    2d9e:	8ff5                	and	a5,a5,a3
    2da0:	2007f793          	andi	a5,a5,512
    2da4:	c385                	beqz	a5,2dc4 <USB_Istr+0x4a>
    2da6:	67c1                	lui	a5,0x10
    2da8:	dff78793          	addi	a5,a5,-513 # fdff <_data_lma+0xac2f>
    2dac:	c4f72223          	sw	a5,-956(a4)
    2db0:	83818713          	addi	a4,gp,-1992 # 20000358 <bIntPackSOF>
    2db4:	00074783          	lbu	a5,0(a4)
    2db8:	0785                	addi	a5,a5,1
    2dba:	0ff7f793          	andi	a5,a5,255
    2dbe:	00f70023          	sb	a5,0(a4)
    2dc2:	3f61                	jal	2d5a <SOF_Callback>
    2dc4:	38a45783          	lhu	a5,906(s0)
    2dc8:	45c1d703          	lhu	a4,1116(gp) # 20000f7c <wInterrupt_Mask>
    2dcc:	8ff9                	and	a5,a5,a4
    2dce:	07c2                	slli	a5,a5,0x10
    2dd0:	87c1                	srai	a5,a5,0x10
    2dd2:	0007d463          	bgez	a5,2dda <USB_Istr+0x60>
    2dd6:	f02ff0ef          	jal	ra,24d8 <CTR_LP>
    2dda:	38a45783          	lhu	a5,906(s0)
    2dde:	45c1d703          	lhu	a4,1116(gp) # 20000f7c <wInterrupt_Mask>
    2de2:	8ff9                	and	a5,a5,a4
    2de4:	4007f793          	andi	a5,a5,1024
    2de8:	cf89                	beqz	a5,2e02 <USB_Istr+0x88>
    2dea:	67c1                	lui	a5,0x10
    2dec:	bff78793          	addi	a5,a5,-1025 # fbff <_data_lma+0xaa2f>
    2df0:	40006737          	lui	a4,0x40006
    2df4:	c4f72223          	sw	a5,-956(a4) # 40005c44 <_eusrstack+0x20000c44>
    2df8:	200007b7          	lui	a5,0x20000
    2dfc:	29c7a783          	lw	a5,668(a5) # 2000029c <Device_Property+0x4>
    2e00:	9782                	jalr	a5
    2e02:	38a45703          	lhu	a4,906(s0)
    2e06:	45c1d783          	lhu	a5,1116(gp) # 20000f7c <wInterrupt_Mask>
    2e0a:	8f7d                	and	a4,a4,a5
    2e0c:	01271693          	slli	a3,a4,0x12
    2e10:	0006d863          	bgez	a3,2e20 <USB_Istr+0xa6>
    2e14:	6739                	lui	a4,0xe
    2e16:	400066b7          	lui	a3,0x40006
    2e1a:	177d                	addi	a4,a4,-1
    2e1c:	c4e6a223          	sw	a4,-956(a3) # 40005c44 <_eusrstack+0x20000c44>
    2e20:	38a45703          	lhu	a4,906(s0)
    2e24:	8ff9                	and	a5,a5,a4
    2e26:	01379713          	slli	a4,a5,0x13
    2e2a:	00075a63          	bgez	a4,2e3e <USB_Istr+0xc4>
    2e2e:	67bd                	lui	a5,0xf
    2e30:	40006737          	lui	a4,0x40006
    2e34:	17fd                	addi	a5,a5,-1
    2e36:	c4f72223          	sw	a5,-956(a4) # 40005c44 <_eusrstack+0x20000c44>
    2e3a:	4501                	li	a0,0
    2e3c:	23c1                	jal	33fc <Resume>
    2e3e:	45c1d703          	lhu	a4,1116(gp) # 20000f7c <wInterrupt_Mask>
    2e42:	38a45783          	lhu	a5,906(s0)
    2e46:	8ff9                	and	a5,a5,a4
    2e48:	01479713          	slli	a4,a5,0x14
    2e4c:	00075e63          	bgez	a4,2e68 <USB_Istr+0xee>
    2e50:	81c1a783          	lw	a5,-2020(gp) # 2000033c <fSuspendEnabled>
    2e54:	10078163          	beqz	a5,2f56 <USB_Istr+0x1dc>
    2e58:	2975                	jal	3314 <Suspend>
    2e5a:	67bd                	lui	a5,0xf
    2e5c:	40006737          	lui	a4,0x40006
    2e60:	7ff78793          	addi	a5,a5,2047 # f7ff <_data_lma+0xa62f>
    2e64:	c4f72223          	sw	a5,-956(a4) # 40005c44 <_eusrstack+0x20000c44>
    2e68:	38a45783          	lhu	a5,906(s0)
    2e6c:	45c1d703          	lhu	a4,1116(gp) # 20000f7c <wInterrupt_Mask>
    2e70:	8ff9                	and	a5,a5,a4
    2e72:	1007f793          	andi	a5,a5,256
    2e76:	c3fd                	beqz	a5,2f5c <USB_Istr+0x1e2>
    2e78:	67c1                	lui	a5,0x10
    2e7a:	40006737          	lui	a4,0x40006
    2e7e:	eff78693          	addi	a3,a5,-257 # feff <_data_lma+0xad2f>
    2e82:	c4d72223          	sw	a3,-956(a4) # 40005c44 <_eusrstack+0x20000c44>
    2e86:	c4872603          	lw	a2,-952(a4)
    2e8a:	83c18693          	addi	a3,gp,-1988 # 2000035c <esof_counter>
    2e8e:	01061593          	slli	a1,a2,0x10
    2e92:	0a05da63          	bgez	a1,2f46 <USB_Istr+0x1cc>
    2e96:	4290                	lw	a2,0(a3)
    2e98:	0605                	addi	a2,a2,1
    2e9a:	c290                	sw	a2,0(a3)
    2e9c:	428c                	lw	a1,0(a3)
    2e9e:	460d                	li	a2,3
    2ea0:	0ab67563          	bgeu	a2,a1,2f4a <USB_Istr+0x1d0>
    2ea4:	c4072603          	lw	a2,-960(a4)
    2ea8:	17fd                	addi	a5,a5,-1
    2eaa:	8a21                	andi	a2,a2,8
    2eac:	ee59                	bnez	a2,2f4a <USB_Istr+0x1d0>
    2eae:	c4072603          	lw	a2,-960(a4)
    2eb2:	84018593          	addi	a1,gp,-1984 # 20000360 <wCNTR>
    2eb6:	8e7d                	and	a2,a2,a5
    2eb8:	40006537          	lui	a0,0x40006
    2ebc:	c190                	sw	a2,0(a1)
    2ebe:	84018713          	addi	a4,gp,-1984 # 20000360 <wCNTR>
    2ec2:	4601                	li	a2,0
    2ec4:	c0050313          	addi	t1,a0,-1024 # 40005c00 <_eusrstack+0x20000c00>
    2ec8:	48a1                	li	a7,8
    2eca:	00261593          	slli	a1,a2,0x2
    2ece:	00658833          	add	a6,a1,t1
    2ed2:	00082803          	lw	a6,0(a6) # 3000 <USBD_init+0x1a>
    2ed6:	1000                	addi	s0,sp,32
    2ed8:	95a2                	add	a1,a1,s0
    2eda:	00f87833          	and	a6,a6,a5
    2ede:	ff05a023          	sw	a6,-32(a1)
    2ee2:	0605                	addi	a2,a2,1
    2ee4:	ff1613e3          	bne	a2,a7,2eca <USB_Istr+0x150>
    2ee8:	4310                	lw	a2,0(a4)
    2eea:	00166613          	ori	a2,a2,1
    2eee:	c310                	sw	a2,0(a4)
    2ef0:	4310                	lw	a2,0(a4)
    2ef2:	8e7d                	and	a2,a2,a5
    2ef4:	c4c52023          	sw	a2,-960(a0)
    2ef8:	4310                	lw	a2,0(a4)
    2efa:	9a79                	andi	a2,a2,-2
    2efc:	c310                	sw	a2,0(a4)
    2efe:	4318                	lw	a4,0(a4)
    2f00:	8ff9                	and	a5,a5,a4
    2f02:	c4f52023          	sw	a5,-960(a0)
    2f06:	40006737          	lui	a4,0x40006
    2f0a:	c4472783          	lw	a5,-956(a4) # 40005c44 <_eusrstack+0x20000c44>
    2f0e:	4007f793          	andi	a5,a5,1024
    2f12:	dfe5                	beqz	a5,2f0a <USB_Istr+0x190>
    2f14:	67c1                	lui	a5,0x10
    2f16:	bff78793          	addi	a5,a5,-1025 # fbff <_data_lma+0xaa2f>
    2f1a:	40006537          	lui	a0,0x40006
    2f1e:	65c1                	lui	a1,0x10
    2f20:	c4f72223          	sw	a5,-956(a4)
    2f24:	c0050513          	addi	a0,a0,-1024 # 40005c00 <_eusrstack+0x20000c00>
    2f28:	4781                	li	a5,0
    2f2a:	15fd                	addi	a1,a1,-1
    2f2c:	4821                	li	a6,8
    2f2e:	00279713          	slli	a4,a5,0x2
    2f32:	1010                	addi	a2,sp,32
    2f34:	963a                	add	a2,a2,a4
    2f36:	fe062603          	lw	a2,-32(a2) # 2fe0 <USBD_Get_Interface_Setting+0xe>
    2f3a:	972a                	add	a4,a4,a0
    2f3c:	0785                	addi	a5,a5,1
    2f3e:	8e6d                	and	a2,a2,a1
    2f40:	c310                	sw	a2,0(a4)
    2f42:	ff0796e3          	bne	a5,a6,2f2e <USB_Istr+0x1b4>
    2f46:	0006a023          	sw	zero,0(a3)
    2f4a:	5422                	lw	s0,40(sp)
    2f4c:	50b2                	lw	ra,44(sp)
    2f4e:	5492                	lw	s1,36(sp)
    2f50:	451d                	li	a0,7
    2f52:	6145                	addi	sp,sp,48
    2f54:	a165                	j	33fc <Resume>
    2f56:	4509                	li	a0,2
    2f58:	2155                	jal	33fc <Resume>
    2f5a:	b701                	j	2e5a <USB_Istr+0xe0>
    2f5c:	50b2                	lw	ra,44(sp)
    2f5e:	5422                	lw	s0,40(sp)
    2f60:	5492                	lw	s1,36(sp)
    2f62:	6145                	addi	sp,sp,48
    2f64:	8082                	ret

00002f66 <USBD_HID_Data_Updata>:
    2f66:	1141                	addi	sp,sp,-16
    2f68:	c606                	sw	ra,12(sp)
    2f6a:	c422                	sw	s0,8(sp)
    2f6c:	0800                	addi	s0,sp,16
    2f6e:	0001                	nop
    2f70:	8311c783          	lbu	a5,-1999(gp) # 20000351 <Endp2Busy>
    2f74:	fff5                	bnez	a5,2f70 <USBD_HID_Data_Updata+0xa>
    2f76:	04000613          	li	a2,64
    2f7a:	14000593          	li	a1,320
    2f7e:	cd418513          	addi	a0,gp,-812 # 200007f4 <HIDTxBuffer>
    2f82:	8a3ff0ef          	jal	ra,2824 <UserToPMABufferCopy>
    2f86:	04000593          	li	a1,64
    2f8a:	4509                	li	a0,2
    2f8c:	b3bff0ef          	jal	ra,2ac6 <SetEPTxCount>
    2f90:	4509                	li	a0,2
    2f92:	9a7ff0ef          	jal	ra,2938 <SetEPTxValid>
    2f96:	4705                	li	a4,1
    2f98:	82e188a3          	sb	a4,-1999(gp) # 20000351 <Endp2Busy>
    2f9c:	0001                	nop
    2f9e:	40b2                	lw	ra,12(sp)
    2fa0:	4422                	lw	s0,8(sp)
    2fa2:	0141                	addi	sp,sp,16
    2fa4:	8082                	ret

00002fa6 <HID_SaveReportOut>:
    2fa6:	84418513          	addi	a0,gp,-1980 # 20000364 <HIDReportOut>
    2faa:	8082                	ret

00002fac <USBD_SetConfiguration>:
    2fac:	4421c783          	lbu	a5,1090(gp) # 20000f62 <Device_Info+0xa>
    2fb0:	c781                	beqz	a5,2fb8 <USBD_SetConfiguration+0xc>
    2fb2:	4715                	li	a4,5
    2fb4:	84e1a823          	sw	a4,-1968(gp) # 20000370 <bDeviceState>
    2fb8:	8082                	ret

00002fba <USBD_SetDeviceAddress>:
    2fba:	4711                	li	a4,4
    2fbc:	84e1a823          	sw	a4,-1968(gp) # 20000370 <bDeviceState>
    2fc0:	8082                	ret

00002fc2 <USBD_SetDeviceFeature>:
    2fc2:	4705                	li	a4,1
    2fc4:	84e1a623          	sw	a4,-1972(gp) # 2000036c <WakeUpEnFlag>
    2fc8:	8082                	ret

00002fca <USBD_ClearFeature>:
    2fca:	8401a623          	sw	zero,-1972(gp) # 2000036c <WakeUpEnFlag>
    2fce:	8082                	ret

00002fd0 <USBD_Status_In>:
    2fd0:	8082                	ret

00002fd2 <USBD_Get_Interface_Setting>:
    2fd2:	e591                	bnez	a1,2fde <USBD_Get_Interface_Setting+0xc>
    2fd4:	4785                	li	a5,1
    2fd6:	00a7b533          	sltu	a0,a5,a0
    2fda:	0506                	slli	a0,a0,0x1
    2fdc:	8082                	ret
    2fde:	4509                	li	a0,2
    2fe0:	8082                	ret

00002fe2 <USBD_NoData_Setup>:
    2fe2:	4501                	li	a0,0
    2fe4:	8082                	ret

00002fe6 <USBD_init>:
    2fe6:	4581a783          	lw	a5,1112(gp) # 20000f78 <pInformation>
    2fea:	1141                	addi	sp,sp,-16
    2fec:	c606                	sw	ra,12(sp)
    2fee:	00078523          	sb	zero,10(a5)
    2ff2:	2ce5                	jal	32ea <PowerOn>
    2ff4:	400067b7          	lui	a5,0x40006
    2ff8:	6685                	lui	a3,0x1
    2ffa:	40006637          	lui	a2,0x40006
    2ffe:	c0078793          	addi	a5,a5,-1024 # 40005c00 <_eusrstack+0x20000c00>
    3002:	f0f68693          	addi	a3,a3,-241 # f0f <RCC_APB2PeriphResetCmd+0x1d>
    3006:	c2060593          	addi	a1,a2,-992 # 40005c20 <_eusrstack+0x20000c20>
    300a:	4398                	lw	a4,0(a5)
    300c:	0791                	addi	a5,a5,4
    300e:	8f75                	and	a4,a4,a3
    3010:	fee7ae23          	sw	a4,-4(a5)
    3014:	feb79be3          	bne	a5,a1,300a <USBD_init+0x24>
    3018:	0ff00793          	li	a5,255
    301c:	c4f62223          	sw	a5,-956(a2)
    3020:	b3dff0ef          	jal	ra,2b5c <USB_SIL_Init>
    3024:	40b2                	lw	ra,12(sp)
    3026:	8401a823          	sw	zero,-1968(gp) # 20000370 <bDeviceState>
    302a:	0141                	addi	sp,sp,16
    302c:	8082                	ret

0000302e <USBD_Reset>:
    302e:	6715                	lui	a4,0x5
    3030:	dbf74703          	lbu	a4,-577(a4) # 4dbf <USBD_ConfigDescriptor+0x7>
    3034:	4581a783          	lw	a5,1112(gp) # 20000f78 <pInformation>
    3038:	1141                	addi	sp,sp,-16
    303a:	c606                	sw	ra,12(sp)
    303c:	00e784a3          	sb	a4,9(a5)
    3040:	00079523          	sh	zero,10(a5)
    3044:	4501                	li	a0,0
    3046:	825ff0ef          	jal	ra,286a <SetBTABLE>
    304a:	20000593          	li	a1,512
    304e:	4501                	li	a0,0
    3050:	82bff0ef          	jal	ra,287a <SetEPType>
    3054:	45c1                	li	a1,16
    3056:	4501                	li	a0,0
    3058:	843ff0ef          	jal	ra,289a <SetEPTxStatus>
    305c:	04000593          	li	a1,64
    3060:	4501                	li	a0,0
    3062:	a05ff0ef          	jal	ra,2a66 <SetEPRxAddr>
    3066:	08000593          	li	a1,128
    306a:	4501                	li	a0,0
    306c:	9dbff0ef          	jal	ra,2a46 <SetEPTxAddr>
    3070:	4501                	li	a0,0
    3072:	96fff0ef          	jal	ra,29e0 <Clear_Status_Out>
    3076:	200007b7          	lui	a5,0x20000
    307a:	2c47c583          	lbu	a1,708(a5) # 200002c4 <Device_Property+0x2c>
    307e:	4501                	li	a0,0
    3080:	a65ff0ef          	jal	ra,2ae4 <SetEPRxCount>
    3084:	4501                	li	a0,0
    3086:	8f3ff0ef          	jal	ra,2978 <SetEPRxValid>
    308a:	40006737          	lui	a4,0x40006
    308e:	c0072603          	lw	a2,-1024(a4) # 40005c00 <_eusrstack+0x20000c00>
    3092:	67c1                	lui	a5,0x10
    3094:	fff78693          	addi	a3,a5,-1 # ffff <_data_lma+0xae2f>
    3098:	01161793          	slli	a5,a2,0x11
    309c:	0007df63          	bgez	a5,30ba <USBD_Reset+0x8c>
    30a0:	c0072783          	lw	a5,-1024(a4)
    30a4:	8ff5                	and	a5,a5,a3
    30a6:	6685                	lui	a3,0x1
    30a8:	f0f68693          	addi	a3,a3,-241 # f0f <RCC_APB2PeriphResetCmd+0x1d>
    30ac:	8ff5                	and	a5,a5,a3
    30ae:	66b1                	lui	a3,0xc
    30b0:	08068693          	addi	a3,a3,128 # c080 <_data_lma+0x6eb0>
    30b4:	8fd5                	or	a5,a5,a3
    30b6:	c0f72023          	sw	a5,-1024(a4)
    30ba:	40006737          	lui	a4,0x40006
    30be:	c0072783          	lw	a5,-1024(a4) # 40005c00 <_eusrstack+0x20000c00>
    30c2:	0407f793          	andi	a5,a5,64
    30c6:	c385                	beqz	a5,30e6 <USBD_Reset+0xb8>
    30c8:	c0072783          	lw	a5,-1024(a4)
    30cc:	66c1                	lui	a3,0x10
    30ce:	16fd                	addi	a3,a3,-1
    30d0:	8ff5                	and	a5,a5,a3
    30d2:	6685                	lui	a3,0x1
    30d4:	f0f68693          	addi	a3,a3,-241 # f0f <RCC_APB2PeriphResetCmd+0x1d>
    30d8:	8ff5                	and	a5,a5,a3
    30da:	66a1                	lui	a3,0x8
    30dc:	0c068693          	addi	a3,a3,192 # 80c0 <_data_lma+0x2ef0>
    30e0:	8fd5                	or	a5,a5,a3
    30e2:	c0f72023          	sw	a5,-1024(a4)
    30e6:	60000593          	li	a1,1536
    30ea:	4505                	li	a0,1
    30ec:	f8eff0ef          	jal	ra,287a <SetEPType>
    30f0:	0c000593          	li	a1,192
    30f4:	4505                	li	a0,1
    30f6:	951ff0ef          	jal	ra,2a46 <SetEPTxAddr>
    30fa:	10000593          	li	a1,256
    30fe:	4505                	li	a0,1
    3100:	967ff0ef          	jal	ra,2a66 <SetEPRxAddr>
    3104:	45a1                	li	a1,8
    3106:	4505                	li	a0,1
    3108:	9ddff0ef          	jal	ra,2ae4 <SetEPRxCount>
    310c:	658d                	lui	a1,0x3
    310e:	4505                	li	a0,1
    3110:	fd2ff0ef          	jal	ra,28e2 <SetEPRxStatus>
    3114:	02000593          	li	a1,32
    3118:	4505                	li	a0,1
    311a:	f80ff0ef          	jal	ra,289a <SetEPTxStatus>
    311e:	40006737          	lui	a4,0x40006
    3122:	c0472603          	lw	a2,-1020(a4) # 40005c04 <_eusrstack+0x20000c04>
    3126:	67c1                	lui	a5,0x10
    3128:	fff78693          	addi	a3,a5,-1 # ffff <_data_lma+0xae2f>
    312c:	01161793          	slli	a5,a2,0x11
    3130:	0007df63          	bgez	a5,314e <USBD_Reset+0x120>
    3134:	c0472783          	lw	a5,-1020(a4)
    3138:	8ff5                	and	a5,a5,a3
    313a:	6685                	lui	a3,0x1
    313c:	f0f68693          	addi	a3,a3,-241 # f0f <RCC_APB2PeriphResetCmd+0x1d>
    3140:	8ff5                	and	a5,a5,a3
    3142:	66b1                	lui	a3,0xc
    3144:	08068693          	addi	a3,a3,128 # c080 <_data_lma+0x6eb0>
    3148:	8fd5                	or	a5,a5,a3
    314a:	c0f72223          	sw	a5,-1020(a4)
    314e:	40006737          	lui	a4,0x40006
    3152:	c0472783          	lw	a5,-1020(a4) # 40005c04 <_eusrstack+0x20000c04>
    3156:	0407f793          	andi	a5,a5,64
    315a:	c385                	beqz	a5,317a <USBD_Reset+0x14c>
    315c:	c0472783          	lw	a5,-1020(a4)
    3160:	66c1                	lui	a3,0x10
    3162:	16fd                	addi	a3,a3,-1
    3164:	8ff5                	and	a5,a5,a3
    3166:	6685                	lui	a3,0x1
    3168:	f0f68693          	addi	a3,a3,-241 # f0f <RCC_APB2PeriphResetCmd+0x1d>
    316c:	8ff5                	and	a5,a5,a3
    316e:	66a1                	lui	a3,0x8
    3170:	0c068693          	addi	a3,a3,192 # 80c0 <_data_lma+0x2ef0>
    3174:	8fd5                	or	a5,a5,a3
    3176:	c0f72223          	sw	a5,-1020(a4)
    317a:	60000593          	li	a1,1536
    317e:	4509                	li	a0,2
    3180:	efaff0ef          	jal	ra,287a <SetEPType>
    3184:	14000593          	li	a1,320
    3188:	4509                	li	a0,2
    318a:	8bdff0ef          	jal	ra,2a46 <SetEPTxAddr>
    318e:	18000593          	li	a1,384
    3192:	4509                	li	a0,2
    3194:	8d3ff0ef          	jal	ra,2a66 <SetEPRxAddr>
    3198:	04000593          	li	a1,64
    319c:	4509                	li	a0,2
    319e:	947ff0ef          	jal	ra,2ae4 <SetEPRxCount>
    31a2:	658d                	lui	a1,0x3
    31a4:	4509                	li	a0,2
    31a6:	f3cff0ef          	jal	ra,28e2 <SetEPRxStatus>
    31aa:	02000593          	li	a1,32
    31ae:	4509                	li	a0,2
    31b0:	eeaff0ef          	jal	ra,289a <SetEPTxStatus>
    31b4:	40006737          	lui	a4,0x40006
    31b8:	c0872603          	lw	a2,-1016(a4) # 40005c08 <_eusrstack+0x20000c08>
    31bc:	67c1                	lui	a5,0x10
    31be:	fff78693          	addi	a3,a5,-1 # ffff <_data_lma+0xae2f>
    31c2:	01161793          	slli	a5,a2,0x11
    31c6:	0007df63          	bgez	a5,31e4 <USBD_Reset+0x1b6>
    31ca:	c0872783          	lw	a5,-1016(a4)
    31ce:	8ff5                	and	a5,a5,a3
    31d0:	6685                	lui	a3,0x1
    31d2:	f0f68693          	addi	a3,a3,-241 # f0f <RCC_APB2PeriphResetCmd+0x1d>
    31d6:	8ff5                	and	a5,a5,a3
    31d8:	66b1                	lui	a3,0xc
    31da:	08068693          	addi	a3,a3,128 # c080 <_data_lma+0x6eb0>
    31de:	8fd5                	or	a5,a5,a3
    31e0:	c0f72423          	sw	a5,-1016(a4)
    31e4:	40006737          	lui	a4,0x40006
    31e8:	c0872783          	lw	a5,-1016(a4) # 40005c08 <_eusrstack+0x20000c08>
    31ec:	0407f793          	andi	a5,a5,64
    31f0:	c385                	beqz	a5,3210 <USBD_Reset+0x1e2>
    31f2:	c0872783          	lw	a5,-1016(a4)
    31f6:	66c1                	lui	a3,0x10
    31f8:	16fd                	addi	a3,a3,-1
    31fa:	8ff5                	and	a5,a5,a3
    31fc:	6685                	lui	a3,0x1
    31fe:	f0f68693          	addi	a3,a3,-241 # f0f <RCC_APB2PeriphResetCmd+0x1d>
    3202:	8ff5                	and	a5,a5,a3
    3204:	66a1                	lui	a3,0x8
    3206:	0c068693          	addi	a3,a3,192 # 80c0 <_data_lma+0x2ef0>
    320a:	8fd5                	or	a5,a5,a3
    320c:	c0f72423          	sw	a5,-1016(a4)
    3210:	4501                	li	a0,0
    3212:	9e2ff0ef          	jal	ra,23f4 <SetDeviceAddress>
    3216:	40b2                	lw	ra,12(sp)
    3218:	4705                	li	a4,1
    321a:	84e1a823          	sw	a4,-1968(gp) # 20000370 <bDeviceState>
    321e:	0141                	addi	sp,sp,16
    3220:	8082                	ret

00003222 <USBD_GetDeviceDescriptor>:
    3222:	81018593          	addi	a1,gp,-2032 # 20000330 <Device_Descriptor>
    3226:	d39fe06f          	j	1f5e <Standard_GetDescriptorData>

0000322a <USBD_GetConfigDescriptor>:
    322a:	80818593          	addi	a1,gp,-2040 # 20000328 <Config_Descriptor>
    322e:	d31fe06f          	j	1f5e <Standard_GetDescriptorData>

00003232 <USBD_GetStringDescriptor>:
    3232:	4581a783          	lw	a5,1112(gp) # 20000f78 <pInformation>
    3236:	0037c583          	lbu	a1,3(a5)
    323a:	4791                	li	a5,4
    323c:	00b7ea63          	bltu	a5,a1,3250 <USBD_GetStringDescriptor+0x1e>
    3240:	200007b7          	lui	a5,0x20000
    3244:	058e                	slli	a1,a1,0x3
    3246:	2d878793          	addi	a5,a5,728 # 200002d8 <String_Descriptor>
    324a:	95be                	add	a1,a1,a5
    324c:	d13fe06f          	j	1f5e <Standard_GetDescriptorData>
    3250:	4501                	li	a0,0
    3252:	8082                	ret

00003254 <USBD_GetReportDescriptor>:
    3254:	4581a783          	lw	a5,1112(gp) # 20000f78 <pInformation>
    3258:	0057c583          	lbu	a1,5(a5)
    325c:	4789                	li	a5,2
    325e:	00b7ea63          	bltu	a5,a1,3272 <USBD_GetReportDescriptor+0x1e>
    3262:	200007b7          	lui	a5,0x20000
    3266:	058e                	slli	a1,a1,0x3
    3268:	2c878793          	addi	a5,a5,712 # 200002c8 <Report_Descriptor>
    326c:	95be                	add	a1,a1,a5
    326e:	cf1fe06f          	j	1f5e <Standard_GetDescriptorData>
    3272:	4501                	li	a0,0
    3274:	8082                	ret

00003276 <USBD_Data_Setup>:
    3276:	4581a783          	lw	a5,1112(gp) # 20000f78 <pInformation>
    327a:	4685                	li	a3,1
    327c:	0007c703          	lbu	a4,0(a5)
    3280:	07f77613          	andi	a2,a4,127
    3284:	02d61863          	bne	a2,a3,32b4 <USBD_Data_Setup+0x3e>
    3288:	0027c683          	lbu	a3,2(a5)
    328c:	02200713          	li	a4,34
    3290:	4509                	li	a0,2
    3292:	04e69a63          	bne	a3,a4,32e6 <USBD_Data_Setup+0x70>
    3296:	1141                	addi	sp,sp,-16
    3298:	00003737          	lui	a4,0x3
    329c:	c606                	sw	ra,12(sp)
    329e:	25470713          	addi	a4,a4,596 # 3254 <USBD_GetReportDescriptor>
    32a2:	00079923          	sh	zero,18(a5)
    32a6:	cf98                	sw	a4,24(a5)
    32a8:	4501                	li	a0,0
    32aa:	376d                	jal	3254 <USBD_GetReportDescriptor>
    32ac:	40b2                	lw	ra,12(sp)
    32ae:	4501                	li	a0,0
    32b0:	0141                	addi	sp,sp,16
    32b2:	8082                	ret
    32b4:	0017c603          	lbu	a2,1(a5)
    32b8:	46a5                	li	a3,9
    32ba:	4501                	li	a0,0
    32bc:	02d61563          	bne	a2,a3,32e6 <USBD_Data_Setup+0x70>
    32c0:	06077713          	andi	a4,a4,96
    32c4:	02000693          	li	a3,32
    32c8:	00d71f63          	bne	a4,a3,32e6 <USBD_Data_Setup+0x70>
    32cc:	0067d703          	lhu	a4,6(a5)
    32d0:	00e79823          	sh	a4,16(a5)
    32d4:	00003737          	lui	a4,0x3
    32d8:	fa670713          	addi	a4,a4,-90 # 2fa6 <HID_SaveReportOut>
    32dc:	cf98                	sw	a4,24(a5)
    32de:	4715                	li	a4,5
    32e0:	00e78423          	sb	a4,8(a5)
    32e4:	8082                	ret
    32e6:	8082                	ret

000032e8 <USBD_Status_Out>:
    32e8:	8082                	ret

000032ea <PowerOn>:
    32ea:	400067b7          	lui	a5,0x40006
    32ee:	4705                	li	a4,1
    32f0:	c4e7a023          	sw	a4,-960(a5) # 40005c40 <_eusrstack+0x20000c40>
    32f4:	c407a023          	sw	zero,-960(a5)
    32f8:	6709                	lui	a4,0x2
    32fa:	c407a223          	sw	zero,-956(a5)
    32fe:	c0070713          	addi	a4,a4,-1024 # 1c00 <DataStageIn+0x2c>
    3302:	44e19e23          	sh	a4,1116(gp) # 20000f7c <wInterrupt_Mask>
    3306:	6709                	lui	a4,0x2
    3308:	c0070713          	addi	a4,a4,-1024 # 1c00 <DataStageIn+0x2c>
    330c:	c4e7a023          	sw	a4,-960(a5)
    3310:	4501                	li	a0,0
    3312:	8082                	ret

00003314 <Suspend>:
    3314:	400067b7          	lui	a5,0x40006
    3318:	c407a783          	lw	a5,-960(a5) # 40005c40 <_eusrstack+0x20000c40>
    331c:	40006737          	lui	a4,0x40006
    3320:	6841                	lui	a6,0x10
    3322:	07c2                	slli	a5,a5,0x10
    3324:	200015b7          	lui	a1,0x20001
    3328:	83c1                	srli	a5,a5,0x10
    332a:	4681                	li	a3,0
    332c:	c0070313          	addi	t1,a4,-1024 # 40005c00 <_eusrstack+0x20000c00>
    3330:	187d                	addi	a6,a6,-1
    3332:	39458593          	addi	a1,a1,916 # 20001394 <EP>
    3336:	48a1                	li	a7,8
    3338:	00269613          	slli	a2,a3,0x2
    333c:	00660533          	add	a0,a2,t1
    3340:	4108                	lw	a0,0(a0)
    3342:	962e                	add	a2,a2,a1
    3344:	0685                	addi	a3,a3,1
    3346:	01057533          	and	a0,a0,a6
    334a:	c208                	sw	a0,0(a2)
    334c:	ff1696e3          	bne	a3,a7,3338 <Suspend+0x24>
    3350:	4007e693          	ori	a3,a5,1024
    3354:	c4d72023          	sw	a3,-960(a4)
    3358:	4017e693          	ori	a3,a5,1025
    335c:	9bf9                	andi	a5,a5,-2
    335e:	07c2                	slli	a5,a5,0x10
    3360:	83c1                	srli	a5,a5,0x10
    3362:	c4d72023          	sw	a3,-960(a4)
    3366:	4007e693          	ori	a3,a5,1024
    336a:	c4d72023          	sw	a3,-960(a4)
    336e:	400066b7          	lui	a3,0x40006
    3372:	c446a703          	lw	a4,-956(a3) # 40005c44 <_eusrstack+0x20000c44>
    3376:	40077713          	andi	a4,a4,1024
    337a:	df65                	beqz	a4,3372 <Suspend+0x5e>
    337c:	6741                	lui	a4,0x10
    337e:	bff70713          	addi	a4,a4,-1025 # fbff <_data_lma+0xaa2f>
    3382:	c4e6a223          	sw	a4,-956(a3)
    3386:	6841                	lui	a6,0x10
    3388:	40006737          	lui	a4,0x40006
    338c:	4681                	li	a3,0
    338e:	c0070313          	addi	t1,a4,-1024 # 40005c00 <_eusrstack+0x20000c00>
    3392:	187d                	addi	a6,a6,-1
    3394:	48a1                	li	a7,8
    3396:	00269613          	slli	a2,a3,0x2
    339a:	00c58533          	add	a0,a1,a2
    339e:	4108                	lw	a0,0(a0)
    33a0:	961a                	add	a2,a2,t1
    33a2:	0685                	addi	a3,a3,1
    33a4:	01057533          	and	a0,a0,a6
    33a8:	c208                	sw	a0,0(a2)
    33aa:	ff1696e3          	bne	a3,a7,3396 <Suspend+0x82>
    33ae:	4087e793          	ori	a5,a5,1032
    33b2:	c4f72023          	sw	a5,-960(a4)
    33b6:	c4072783          	lw	a5,-960(a4)
    33ba:	07c2                	slli	a5,a5,0x10
    33bc:	83c1                	srli	a5,a5,0x10
    33be:	0047e793          	ori	a5,a5,4
    33c2:	c4f72023          	sw	a5,-960(a4)
    33c6:	811ff06f          	j	2bd6 <Enter_LowPowerMode>

000033ca <Resume_Init>:
    33ca:	1141                	addi	sp,sp,-16
    33cc:	c422                	sw	s0,8(sp)
    33ce:	40006437          	lui	s0,0x40006
    33d2:	c4042783          	lw	a5,-960(s0) # 40005c40 <_eusrstack+0x20000c40>
    33d6:	c606                	sw	ra,12(sp)
    33d8:	07c2                	slli	a5,a5,0x10
    33da:	83c1                	srli	a5,a5,0x10
    33dc:	9bed                	andi	a5,a5,-5
    33de:	07c2                	slli	a5,a5,0x10
    33e0:	83c1                	srli	a5,a5,0x10
    33e2:	c4f42023          	sw	a5,-960(s0)
    33e6:	ff8ff0ef          	jal	ra,2bde <Leave_LowPowerMode>
    33ea:	67b1                	lui	a5,0xc
    33ec:	f0078793          	addi	a5,a5,-256 # bf00 <_data_lma+0x6d30>
    33f0:	c4f42023          	sw	a5,-960(s0)
    33f4:	40b2                	lw	ra,12(sp)
    33f6:	4422                	lw	s0,8(sp)
    33f8:	0141                	addi	sp,sp,16
    33fa:	8082                	ret

000033fc <Resume>:
    33fc:	1141                	addi	sp,sp,-16
    33fe:	c422                	sw	s0,8(sp)
    3400:	c606                	sw	ra,12(sp)
    3402:	479d                	li	a5,7
    3404:	20001437          	lui	s0,0x20001
    3408:	00f50463          	beq	a0,a5,3410 <Resume+0x14>
    340c:	38a42623          	sw	a0,908(s0) # 2000138c <ResumeS>
    3410:	38c42783          	lw	a5,908(s0)
    3414:	4715                	li	a4,5
    3416:	00f76d63          	bltu	a4,a5,3430 <Resume+0x34>
    341a:	6715                	lui	a4,0x5
    341c:	078a                	slli	a5,a5,0x2
    341e:	e9c70713          	addi	a4,a4,-356 # 4e9c <USBD_StringVendor+0xc>
    3422:	97ba                	add	a5,a5,a4
    3424:	439c                	lw	a5,0(a5)
    3426:	8782                	jr	a5
    3428:	8541a783          	lw	a5,-1964(gp) # 20000374 <remotewakeupon>
    342c:	e781                	bnez	a5,3434 <Resume+0x38>
    342e:	3f71                	jal	33ca <Resume_Init>
    3430:	4799                	li	a5,6
    3432:	a011                	j	3436 <Resume+0x3a>
    3434:	4795                	li	a5,5
    3436:	38f42623          	sw	a5,908(s0)
    343a:	a801                	j	344a <Resume+0x4e>
    343c:	3779                	jal	33ca <Resume_Init>
    343e:	4791                	li	a5,4
    3440:	38f42623          	sw	a5,908(s0)
    3444:	4705                	li	a4,1
    3446:	84e1aa23          	sw	a4,-1964(gp) # 20000374 <remotewakeupon>
    344a:	40b2                	lw	ra,12(sp)
    344c:	4422                	lw	s0,8(sp)
    344e:	0141                	addi	sp,sp,16
    3450:	8082                	ret
    3452:	38c40793          	addi	a5,s0,908
    3456:	4709                	li	a4,2
    3458:	00e78223          	sb	a4,4(a5)
    345c:	478d                	li	a5,3
    345e:	bfe1                	j	3436 <Resume+0x3a>
    3460:	38c40713          	addi	a4,s0,908
    3464:	00474783          	lbu	a5,4(a4)
    3468:	17fd                	addi	a5,a5,-1
    346a:	0ff7f793          	andi	a5,a5,255
    346e:	00f70223          	sb	a5,4(a4)
    3472:	00474783          	lbu	a5,4(a4)
    3476:	0ff7f793          	andi	a5,a5,255
    347a:	fbe1                	bnez	a5,344a <Resume+0x4e>
    347c:	4791                	li	a5,4
    347e:	bf65                	j	3436 <Resume+0x3a>
    3480:	40006737          	lui	a4,0x40006
    3484:	c4072783          	lw	a5,-960(a4) # 40005c40 <_eusrstack+0x20000c40>
    3488:	07c2                	slli	a5,a5,0x10
    348a:	83c1                	srli	a5,a5,0x10
    348c:	0107e793          	ori	a5,a5,16
    3490:	c4f72023          	sw	a5,-960(a4)
    3494:	4795                	li	a5,5
    3496:	38f42623          	sw	a5,908(s0)
    349a:	38c40413          	addi	s0,s0,908
    349e:	47a9                	li	a5,10
    34a0:	00f40223          	sb	a5,4(s0)
    34a4:	b75d                	j	344a <Resume+0x4e>
    34a6:	38c40713          	addi	a4,s0,908
    34aa:	00474783          	lbu	a5,4(a4)
    34ae:	17fd                	addi	a5,a5,-1
    34b0:	0ff7f793          	andi	a5,a5,255
    34b4:	00f70223          	sb	a5,4(a4)
    34b8:	00474783          	lbu	a5,4(a4)
    34bc:	0ff7f793          	andi	a5,a5,255
    34c0:	f7c9                	bnez	a5,344a <Resume+0x4e>
    34c2:	40006737          	lui	a4,0x40006
    34c6:	c4072783          	lw	a5,-960(a4) # 40005c40 <_eusrstack+0x20000c40>
    34ca:	07c2                	slli	a5,a5,0x10
    34cc:	83c1                	srli	a5,a5,0x10
    34ce:	9bbd                	andi	a5,a5,-17
    34d0:	07c2                	slli	a5,a5,0x10
    34d2:	83c1                	srli	a5,a5,0x10
    34d4:	c4f72023          	sw	a5,-960(a4)
    34d8:	4799                	li	a5,6
    34da:	38f42623          	sw	a5,908(s0)
    34de:	8401aa23          	sw	zero,-1964(gp) # 20000374 <remotewakeupon>
    34e2:	b7a5                	j	344a <Resume+0x4e>

000034e4 <LED_GPIO_Init>:
    34e4:	1101                	addi	sp,sp,-32
    34e6:	ce06                	sw	ra,28(sp)
    34e8:	cc22                	sw	s0,24(sp)
    34ea:	ca26                	sw	s1,20(sp)
    34ec:	c84a                	sw	s2,16(sp)
    34ee:	c202                	sw	zero,4(sp)
    34f0:	c402                	sw	zero,8(sp)
    34f2:	c602                	sw	zero,12(sp)
    34f4:	c13d                	beqz	a0,355a <LED_GPIO_Init+0x76>
    34f6:	4585                	li	a1,1
    34f8:	4521                	li	a0,8
    34fa:	9bdfd0ef          	jal	ra,eb6 <RCC_APB2PeriphClockCmd>
    34fe:	40011437          	lui	s0,0x40011
    3502:	6785                	lui	a5,0x1
    3504:	80078793          	addi	a5,a5,-2048 # 800 <__stack_size>
    3508:	4941                	li	s2,16
    350a:	448d                	li	s1,3
    350c:	004c                	addi	a1,sp,4
    350e:	c0040513          	addi	a0,s0,-1024 # 40010c00 <_eusrstack+0x2000bc00>
    3512:	00f11223          	sh	a5,4(sp)
    3516:	c64a                	sw	s2,12(sp)
    3518:	c426                	sw	s1,8(sp)
    351a:	f00fd0ef          	jal	ra,c1a <GPIO_Init>
    351e:	6785                	lui	a5,0x1
    3520:	80078793          	addi	a5,a5,-2048 # 800 <__stack_size>
    3524:	c0f42823          	sw	a5,-1008(s0)
    3528:	4585                	li	a1,1
    352a:	4511                	li	a0,4
    352c:	98bfd0ef          	jal	ra,eb6 <RCC_APB2PeriphClockCmd>
    3530:	10000793          	li	a5,256
    3534:	004c                	addi	a1,sp,4
    3536:	80040513          	addi	a0,s0,-2048
    353a:	00f11223          	sh	a5,4(sp)
    353e:	c64a                	sw	s2,12(sp)
    3540:	c426                	sw	s1,8(sp)
    3542:	ed8fd0ef          	jal	ra,c1a <GPIO_Init>
    3546:	10000793          	li	a5,256
    354a:	80f42823          	sw	a5,-2032(s0)
    354e:	40f2                	lw	ra,28(sp)
    3550:	4462                	lw	s0,24(sp)
    3552:	44d2                	lw	s1,20(sp)
    3554:	4942                	lw	s2,16(sp)
    3556:	6105                	addi	sp,sp,32
    3558:	8082                	ret
    355a:	40011437          	lui	s0,0x40011
    355e:	6785                	lui	a5,0x1
    3560:	80078793          	addi	a5,a5,-2048 # 800 <__stack_size>
    3564:	4491                	li	s1,4
    3566:	004c                	addi	a1,sp,4
    3568:	c0040513          	addi	a0,s0,-1024 # 40010c00 <_eusrstack+0x2000bc00>
    356c:	00f11223          	sh	a5,4(sp)
    3570:	c626                	sw	s1,12(sp)
    3572:	ea8fd0ef          	jal	ra,c1a <GPIO_Init>
    3576:	10000793          	li	a5,256
    357a:	004c                	addi	a1,sp,4
    357c:	80040513          	addi	a0,s0,-2048
    3580:	00f11223          	sh	a5,4(sp)
    3584:	c626                	sw	s1,12(sp)
    3586:	e94fd0ef          	jal	ra,c1a <GPIO_Init>
    358a:	b7d1                	j	354e <LED_GPIO_Init+0x6a>

0000358c <BZZ_GPIO_Init>:
    358c:	1101                	addi	sp,sp,-32
    358e:	ce06                	sw	ra,28(sp)
    3590:	c202                	sw	zero,4(sp)
    3592:	c402                	sw	zero,8(sp)
    3594:	c602                	sw	zero,12(sp)
    3596:	c51d                	beqz	a0,35c4 <BZZ_GPIO_Init+0x38>
    3598:	4585                	li	a1,1
    359a:	4521                	li	a0,8
    359c:	91bfd0ef          	jal	ra,eb6 <RCC_APB2PeriphClockCmd>
    35a0:	02000793          	li	a5,32
    35a4:	00f11223          	sh	a5,4(sp)
    35a8:	47c1                	li	a5,16
    35aa:	c63e                	sw	a5,12(sp)
    35ac:	478d                	li	a5,3
    35ae:	c43e                	sw	a5,8(sp)
    35b0:	40011537          	lui	a0,0x40011
    35b4:	004c                	addi	a1,sp,4
    35b6:	c0050513          	addi	a0,a0,-1024 # 40010c00 <_eusrstack+0x2000bc00>
    35ba:	e60fd0ef          	jal	ra,c1a <GPIO_Init>
    35be:	40f2                	lw	ra,28(sp)
    35c0:	6105                	addi	sp,sp,32
    35c2:	8082                	ret
    35c4:	02000793          	li	a5,32
    35c8:	00f11223          	sh	a5,4(sp)
    35cc:	4791                	li	a5,4
    35ce:	c63e                	sw	a5,12(sp)
    35d0:	b7c5                	j	35b0 <BZZ_GPIO_Init+0x24>

000035d2 <KEY_GPIO_Init>:
    35d2:	1101                	addi	sp,sp,-32
    35d4:	ce06                	sw	ra,28(sp)
    35d6:	c202                	sw	zero,4(sp)
    35d8:	c402                	sw	zero,8(sp)
    35da:	c602                	sw	zero,12(sp)
    35dc:	cd05                	beqz	a0,3614 <KEY_GPIO_Init+0x42>
    35de:	4585                	li	a1,1
    35e0:	4541                	li	a0,16
    35e2:	8d5fd0ef          	jal	ra,eb6 <RCC_APB2PeriphClockCmd>
    35e6:	4505                	li	a0,1
    35e8:	fd8fd0ef          	jal	ra,dc0 <PWR_BackupAccessCmd>
    35ec:	4501                	li	a0,0
    35ee:	cacfd0ef          	jal	ra,a9a <BKP_TamperPinCmd>
    35f2:	6789                	lui	a5,0x2
    35f4:	00f11223          	sh	a5,4(sp)
    35f8:	04800793          	li	a5,72
    35fc:	004c                	addi	a1,sp,4
    35fe:	40011537          	lui	a0,0x40011
    3602:	c63e                	sw	a5,12(sp)
    3604:	e16fd0ef          	jal	ra,c1a <GPIO_Init>
    3608:	4501                	li	a0,0
    360a:	fb6fd0ef          	jal	ra,dc0 <PWR_BackupAccessCmd>
    360e:	40f2                	lw	ra,28(sp)
    3610:	6105                	addi	sp,sp,32
    3612:	8082                	ret
    3614:	6789                	lui	a5,0x2
    3616:	00f11223          	sh	a5,4(sp)
    361a:	4791                	li	a5,4
    361c:	b7c5                	j	35fc <KEY_GPIO_Init+0x2a>

0000361e <Save_Flash>:
    361e:	7169                	addi	sp,sp,-304
    3620:	12812423          	sw	s0,296(sp)
    3624:	f8000437          	lui	s0,0xf8000
    3628:	942a                	add	s0,s0,a0
    362a:	000807b7          	lui	a5,0x80
    362e:	8021                	srli	s0,s0,0x8
    3630:	943e                	add	s0,s0,a5
    3632:	0422                	slli	s0,s0,0x8
    3634:	12912223          	sw	s1,292(sp)
    3638:	11412c23          	sw	s4,280(sp)
    363c:	84aa                	mv	s1,a0
    363e:	11512a23          	sw	s5,276(sp)
    3642:	8a32                	mv	s4,a2
    3644:	8aae                	mv	s5,a1
    3646:	10000613          	li	a2,256
    364a:	85a2                	mv	a1,s0
    364c:	0068                	addi	a0,sp,12
    364e:	13212023          	sw	s2,288(sp)
    3652:	11312e23          	sw	s3,284(sp)
    3656:	11612823          	sw	s6,272(sp)
    365a:	12112623          	sw	ra,300(sp)
    365e:	c402                	sw	zero,8(sp)
    3660:	428010ef          	jal	ra,4a88 <memcpy>
    3664:	40848533          	sub	a0,s1,s0
    3668:	4489                	li	s1,2
    366a:	02954533          	div	a0,a0,s1
    366e:	007c                	addi	a5,sp,12
    3670:	10000b13          	li	s6,256
    3674:	8922                	mv	s2,s0
    3676:	10040993          	addi	s3,s0,256 # f8000100 <_eusrstack+0xd7ffb100>
    367a:	10000613          	li	a2,256
    367e:	0506                	slli	a0,a0,0x1
    3680:	953e                	add	a0,a0,a5
    3682:	014b6363          	bltu	s6,s4,3688 <Save_Flash+0x6a>
    3686:	8652                	mv	a2,s4
    3688:	85d6                	mv	a1,s5
    368a:	3fe010ef          	jal	ra,4a88 <memcpy>
    368e:	40021737          	lui	a4,0x40021
    3692:	435c                	lw	a5,4(a4)
    3694:	0807e793          	ori	a5,a5,128
    3698:	c35c                	sw	a5,4(a4)
    369a:	6799                	lui	a5,0x6
    369c:	80079073          	csrw	0x800,a5
    36a0:	cc8fd0ef          	jal	ra,b68 <FLASH_Unlock_Fast>
    36a4:	03500513          	li	a0,53
    36a8:	c98fd0ef          	jal	ra,b40 <FLASH_ClearFlag>
    36ac:	f7ffa7b7          	lui	a5,0xf7ffa
    36b0:	10078793          	addi	a5,a5,256 # f7ffa100 <_eusrstack+0xd7ff5100>
    36b4:	6729                	lui	a4,0xa
    36b6:	97a2                	add	a5,a5,s0
    36b8:	0ff70713          	addi	a4,a4,255 # a0ff <_data_lma+0x4f2f>
    36bc:	00f76963          	bltu	a4,a5,36ce <Save_Flash+0xb0>
    36c0:	8522                	mv	a0,s0
    36c2:	cc6fd0ef          	jal	ra,b88 <FLASH_ErasePage_Fast>
    36c6:	006c                	addi	a1,sp,12
    36c8:	8522                	mv	a0,s0
    36ca:	cecfd0ef          	jal	ra,bb6 <FLASH_ProgramPage_Fast>
    36ce:	cb8fd0ef          	jal	ra,b86 <FLASH_Lock_Fast>
    36d2:	c76fd0ef          	jal	ra,b48 <FLASH_GetStatus>
    36d6:	c42a                	sw	a0,8(sp)
    36d8:	4791                	li	a5,4
    36da:	4722                	lw	a4,8(sp)
    36dc:	fef71fe3          	bne	a4,a5,36da <Save_Flash+0xbc>
    36e0:	40021737          	lui	a4,0x40021
    36e4:	435c                	lw	a5,4(a4)
    36e6:	f7f7f793          	andi	a5,a5,-129
    36ea:	c35c                	sw	a5,4(a4)
    36ec:	6799                	lui	a5,0x6
    36ee:	08878793          	addi	a5,a5,136 # 6088 <_data_lma+0xeb8>
    36f2:	80079073          	csrw	0x800,a5
    36f6:	85818793          	addi	a5,gp,-1960 # 20000378 <SaveStatus>
    36fa:	4685                	li	a3,1
    36fc:	c394                	sw	a3,0(a5)
    36fe:	85818713          	addi	a4,gp,-1960 # 20000378 <SaveStatus>
    3702:	007c                	addi	a5,sp,12
    3704:	03395163          	bge	s2,s3,3726 <Save_Flash+0x108>
    3708:	00095683          	lhu	a3,0(s2)
    370c:	0007d603          	lhu	a2,0(a5)
    3710:	0789                	addi	a5,a5,2
    3712:	06c2                	slli	a3,a3,0x10
    3714:	82c1                	srli	a3,a3,0x10
    3716:	00d11323          	sh	a3,6(sp)
    371a:	00615683          	lhu	a3,6(sp)
    371e:	02d60d63          	beq	a2,a3,3758 <Save_Flash+0x13a>
    3722:	00072023          	sw	zero,0(a4) # 40021000 <_eusrstack+0x2001c000>
    3726:	4308                	lw	a0,0(a4)
    3728:	12c12083          	lw	ra,300(sp)
    372c:	12812403          	lw	s0,296(sp)
    3730:	200017b7          	lui	a5,0x20001
    3734:	3a07aa23          	sw	zero,948(a5) # 200013b4 <EraseStatus>
    3738:	12412483          	lw	s1,292(sp)
    373c:	12012903          	lw	s2,288(sp)
    3740:	11c12983          	lw	s3,284(sp)
    3744:	11812a03          	lw	s4,280(sp)
    3748:	11412a83          	lw	s5,276(sp)
    374c:	11012b03          	lw	s6,272(sp)
    3750:	00a03533          	snez	a0,a0
    3754:	6155                	addi	sp,sp,304
    3756:	8082                	ret
    3758:	0909                	addi	s2,s2,2
    375a:	b76d                	j	3704 <Save_Flash+0xe6>

0000375c <Sys_Time_Init>:
    375c:	e000f7b7          	lui	a5,0xe000f
    3760:	0007a023          	sw	zero,0(a5) # e000f000 <_eusrstack+0xc000a000>
    3764:	cd19                	beqz	a0,3782 <Sys_Time_Init+0x26>
    3766:	0007a223          	sw	zero,4(a5)
    376a:	4681                	li	a3,0
    376c:	c794                	sw	a3,8(a5)
    376e:	4701                	li	a4,0
    3770:	c7d8                	sw	a4,12(a5)
    3772:	567d                	li	a2,-1
    3774:	cb90                	sw	a2,16(a5)
    3776:	56fd                	li	a3,-1
    3778:	cbd4                	sw	a3,20(a5)
    377a:	02d00713          	li	a4,45
    377e:	c398                	sw	a4,0(a5)
    3780:	8082                	ret
    3782:	8082                	ret

00003784 <SysTick_Reload>:
    3784:	e000f7b7          	lui	a5,0xe000f
    3788:	c788                	sw	a0,8(a5)
    378a:	c7cc                	sw	a1,12(a5)
    378c:	8082                	ret

0000378e <SYS_Delay_us>:
    378e:	200007b7          	lui	a5,0x20000
    3792:	3207a783          	lw	a5,800(a5) # 20000320 <SystemCoreClock>
    3796:	000f4737          	lui	a4,0xf4
    379a:	24070713          	addi	a4,a4,576 # f4240 <_data_lma+0xef070>
    379e:	02e7d7b3          	divu	a5,a5,a4
    37a2:	e000f337          	lui	t1,0xe000f
    37a6:	02a78533          	mul	a0,a5,a0
    37aa:	e000f7b7          	lui	a5,0xe000f
    37ae:	0087a803          	lw	a6,8(a5) # e000f008 <_eusrstack+0xc000a008>
    37b2:	00c7a883          	lw	a7,12(a5)
    37b6:	8ec2                	mv	t4,a6
    37b8:	8e46                	mv	t3,a7
    37ba:	41f55593          	srai	a1,a0,0x1f
    37be:	00832f03          	lw	t5,8(t1) # e000f008 <_eusrstack+0xc000a008>
    37c2:	00c32f83          	lw	t6,12(t1)
    37c6:	01fe6663          	bltu	t3,t6,37d2 <SYS_Delay_us+0x44>
    37ca:	03cf9263          	bne	t6,t3,37ee <SYS_Delay_us+0x60>
    37ce:	03eef063          	bgeu	t4,t5,37ee <SYS_Delay_us+0x60>
    37d2:	410f0733          	sub	a4,t5,a6
    37d6:	00ef3633          	sltu	a2,t5,a4
    37da:	411f87b3          	sub	a5,t6,a7
    37de:	8f91                	sub	a5,a5,a2
    37e0:	fcb7efe3          	bltu	a5,a1,37be <SYS_Delay_us+0x30>
    37e4:	02f59b63          	bne	a1,a5,381a <SYS_Delay_us+0x8c>
    37e8:	fca76be3          	bltu	a4,a0,37be <SYS_Delay_us+0x30>
    37ec:	8082                	ret
    37ee:	ffff0713          	addi	a4,t5,-1
    37f2:	01e737b3          	sltu	a5,a4,t5
    37f6:	ffff8693          	addi	a3,t6,-1
    37fa:	97b6                	add	a5,a5,a3
    37fc:	410706b3          	sub	a3,a4,a6
    3800:	00d73733          	sltu	a4,a4,a3
    3804:	411787b3          	sub	a5,a5,a7
    3808:	00032223          	sw	zero,4(t1)
    380c:	8f99                	sub	a5,a5,a4
    380e:	fab7e8e3          	bltu	a5,a1,37be <SYS_Delay_us+0x30>
    3812:	00f59463          	bne	a1,a5,381a <SYS_Delay_us+0x8c>
    3816:	faa6e4e3          	bltu	a3,a0,37be <SYS_Delay_us+0x30>
    381a:	8082                	ret

0000381c <SYS_Delay_ms>:
    381c:	200007b7          	lui	a5,0x20000
    3820:	3207a783          	lw	a5,800(a5) # 20000320 <SystemCoreClock>
    3824:	3e800713          	li	a4,1000
    3828:	e000f337          	lui	t1,0xe000f
    382c:	02e7d7b3          	divu	a5,a5,a4
    3830:	02a78533          	mul	a0,a5,a0
    3834:	e000f7b7          	lui	a5,0xe000f
    3838:	0087a803          	lw	a6,8(a5) # e000f008 <_eusrstack+0xc000a008>
    383c:	00c7a883          	lw	a7,12(a5)
    3840:	8ec2                	mv	t4,a6
    3842:	8e46                	mv	t3,a7
    3844:	41f55593          	srai	a1,a0,0x1f
    3848:	00832f03          	lw	t5,8(t1) # e000f008 <_eusrstack+0xc000a008>
    384c:	00c32f83          	lw	t6,12(t1)
    3850:	01fe6663          	bltu	t3,t6,385c <SYS_Delay_ms+0x40>
    3854:	03cf9263          	bne	t6,t3,3878 <SYS_Delay_ms+0x5c>
    3858:	03eef063          	bgeu	t4,t5,3878 <SYS_Delay_ms+0x5c>
    385c:	410f0733          	sub	a4,t5,a6
    3860:	00ef3633          	sltu	a2,t5,a4
    3864:	411f87b3          	sub	a5,t6,a7
    3868:	8f91                	sub	a5,a5,a2
    386a:	fcb7efe3          	bltu	a5,a1,3848 <SYS_Delay_ms+0x2c>
    386e:	02f59b63          	bne	a1,a5,38a4 <SYS_Delay_ms+0x88>
    3872:	fca76be3          	bltu	a4,a0,3848 <SYS_Delay_ms+0x2c>
    3876:	8082                	ret
    3878:	ffff0713          	addi	a4,t5,-1
    387c:	01e737b3          	sltu	a5,a4,t5
    3880:	ffff8693          	addi	a3,t6,-1
    3884:	97b6                	add	a5,a5,a3
    3886:	410706b3          	sub	a3,a4,a6
    388a:	00d73733          	sltu	a4,a4,a3
    388e:	411787b3          	sub	a5,a5,a7
    3892:	00032223          	sw	zero,4(t1)
    3896:	8f99                	sub	a5,a5,a4
    3898:	fab7e8e3          	bltu	a5,a1,3848 <SYS_Delay_ms+0x2c>
    389c:	00f59463          	bne	a1,a5,38a4 <SYS_Delay_ms+0x88>
    38a0:	faa6e4e3          	bltu	a3,a0,3848 <SYS_Delay_ms+0x2c>
    38a4:	8082                	ret

000038a6 <SYS_Delay_S>:
    38a6:	1141                	addi	sp,sp,-16
    38a8:	c422                	sw	s0,8(sp)
    38aa:	c226                	sw	s1,4(sp)
    38ac:	c04a                	sw	s2,0(sp)
    38ae:	c606                	sw	ra,12(sp)
    38b0:	84aa                	mv	s1,a0
    38b2:	4401                	li	s0,0
    38b4:	00005937          	lui	s2,0x5
    38b8:	00944863          	blt	s0,s1,38c8 <SYS_Delay_S+0x22>
    38bc:	40b2                	lw	ra,12(sp)
    38be:	4422                	lw	s0,8(sp)
    38c0:	4492                	lw	s1,4(sp)
    38c2:	4902                	lw	s2,0(sp)
    38c4:	0141                	addi	sp,sp,16
    38c6:	8082                	ret
    38c8:	3e800513          	li	a0,1000
    38cc:	3f81                	jal	381c <SYS_Delay_ms>
    38ce:	eb490513          	addi	a0,s2,-332 # 4eb4 <USBD_StringVendor+0x24>
    38d2:	23d000ef          	jal	ra,430e <puts>
    38d6:	0405                	addi	s0,s0,1
    38d8:	b7c5                	j	38b8 <SYS_Delay_S+0x12>

000038da <Uart1_Init>:
    38da:	715d                	addi	sp,sp,-80
    38dc:	dc52                	sw	s4,56(sp)
    38de:	8a2a                	mv	s4,a0
    38e0:	4509                	li	a0,2
    38e2:	c686                	sw	ra,76(sp)
    38e4:	c4a2                	sw	s0,72(sp)
    38e6:	c2a6                	sw	s1,68(sp)
    38e8:	c0ca                	sw	s2,64(sp)
    38ea:	de4e                	sw	s3,60(sp)
    38ec:	892e                	mv	s2,a1
    38ee:	00b03433          	snez	s0,a1
    38f2:	ca02                	sw	zero,20(sp)
    38f4:	cc02                	sw	zero,24(sp)
    38f6:	ce02                	sw	zero,28(sp)
    38f8:	d002                	sw	zero,32(sp)
    38fa:	d202                	sw	zero,36(sp)
    38fc:	d402                	sw	zero,40(sp)
    38fe:	d602                	sw	zero,44(sp)
    3900:	c602                	sw	zero,12(sp)
    3902:	c802                	sw	zero,16(sp)
    3904:	bfefd0ef          	jal	ra,d02 <NVIC_PriorityGroupConfig>
    3908:	4585                	li	a1,1
    390a:	4511                	li	a0,4
    390c:	daafd0ef          	jal	ra,eb6 <RCC_APB2PeriphClockCmd>
    3910:	85a2                	mv	a1,s0
    3912:	6511                	lui	a0,0x4
    3914:	da2fd0ef          	jal	ra,eb6 <RCC_APB2PeriphClockCmd>
    3918:	40014537          	lui	a0,0x40014
    391c:	80050513          	addi	a0,a0,-2048 # 40013800 <_eusrstack+0x2000e800>
    3920:	e0efd0ef          	jal	ra,f2e <USART_DeInit>
    3924:	400119b7          	lui	s3,0x40011
    3928:	40000793          	li	a5,1024
    392c:	084c                	addi	a1,sp,20
    392e:	80098513          	addi	a0,s3,-2048 # 40010800 <_eusrstack+0x2000b800>
    3932:	4491                	li	s1,4
    3934:	00f11a23          	sh	a5,20(sp)
    3938:	ce26                	sw	s1,28(sp)
    393a:	ae0fd0ef          	jal	ra,c1a <GPIO_Init>
    393e:	20000793          	li	a5,512
    3942:	00f11a23          	sh	a5,20(sp)
    3946:	47e1                	li	a5,24
    3948:	ce3e                	sw	a5,28(sp)
    394a:	084c                	addi	a1,sp,20
    394c:	478d                	li	a5,3
    394e:	80098513          	addi	a0,s3,-2048
    3952:	cc3e                	sw	a5,24(sp)
    3954:	ac6fd0ef          	jal	ra,c1a <GPIO_Init>
    3958:	00091763          	bnez	s2,3966 <Uart1_Init+0x8c>
    395c:	60000793          	li	a5,1536
    3960:	00f11a23          	sh	a5,20(sp)
    3964:	ce26                	sw	s1,28(sp)
    3966:	40011537          	lui	a0,0x40011
    396a:	084c                	addi	a1,sp,20
    396c:	80050513          	addi	a0,a0,-2048 # 40010800 <_eusrstack+0x2000b800>
    3970:	aaafd0ef          	jal	ra,c1a <GPIO_Init>
    3974:	400144b7          	lui	s1,0x40014
    3978:	000c07b7          	lui	a5,0xc0
    397c:	100c                	addi	a1,sp,32
    397e:	80048513          	addi	a0,s1,-2048 # 40013800 <_eusrstack+0x2000e800>
    3982:	d43e                	sw	a5,40(sp)
    3984:	d052                	sw	s4,32(sp)
    3986:	d202                	sw	zero,36(sp)
    3988:	02011623          	sh	zero,44(sp)
    398c:	e1cfd0ef          	jal	ra,fa8 <USART_Init>
    3990:	8622                	mv	a2,s0
    3992:	52500593          	li	a1,1317
    3996:	80048513          	addi	a0,s1,-2048
    399a:	f02fd0ef          	jal	ra,109c <USART_ITConfig>
    399e:	13500793          	li	a5,309
    39a2:	00f11623          	sh	a5,12(sp)
    39a6:	0068                	addi	a0,sp,12
    39a8:	4785                	li	a5,1
    39aa:	00f10723          	sb	a5,14(sp)
    39ae:	c822                	sw	s0,16(sp)
    39b0:	b58fd0ef          	jal	ra,d08 <NVIC_Init>
    39b4:	85a2                	mv	a1,s0
    39b6:	80048513          	addi	a0,s1,-2048
    39ba:	ec6fd0ef          	jal	ra,1080 <USART_Cmd>
    39be:	40b6                	lw	ra,76(sp)
    39c0:	4426                	lw	s0,72(sp)
    39c2:	4496                	lw	s1,68(sp)
    39c4:	4906                	lw	s2,64(sp)
    39c6:	59f2                	lw	s3,60(sp)
    39c8:	5a62                	lw	s4,56(sp)
    39ca:	6161                	addi	sp,sp,80
    39cc:	8082                	ret

000039ce <Uart2_Init>:
    39ce:	715d                	addi	sp,sp,-80
    39d0:	dc52                	sw	s4,56(sp)
    39d2:	8a2a                	mv	s4,a0
    39d4:	4509                	li	a0,2
    39d6:	c686                	sw	ra,76(sp)
    39d8:	c4a2                	sw	s0,72(sp)
    39da:	c2a6                	sw	s1,68(sp)
    39dc:	c0ca                	sw	s2,64(sp)
    39de:	de4e                	sw	s3,60(sp)
    39e0:	00b034b3          	snez	s1,a1
    39e4:	89ae                	mv	s3,a1
    39e6:	b1cfd0ef          	jal	ra,d02 <NVIC_PriorityGroupConfig>
    39ea:	4585                	li	a1,1
    39ec:	4505                	li	a0,1
    39ee:	cc8fd0ef          	jal	ra,eb6 <RCC_APB2PeriphClockCmd>
    39f2:	4585                	li	a1,1
    39f4:	4511                	li	a0,4
    39f6:	cc0fd0ef          	jal	ra,eb6 <RCC_APB2PeriphClockCmd>
    39fa:	85a6                	mv	a1,s1
    39fc:	00020537          	lui	a0,0x20
    3a00:	cb6fd0ef          	jal	ra,eb6 <RCC_APB2PeriphClockCmd>
    3a04:	4791                	li	a5,4
    3a06:	40011437          	lui	s0,0x40011
    3a0a:	00f11a23          	sh	a5,20(sp)
    3a0e:	47e1                	li	a5,24
    3a10:	ce3e                	sw	a5,28(sp)
    3a12:	084c                	addi	a1,sp,20
    3a14:	478d                	li	a5,3
    3a16:	80040513          	addi	a0,s0,-2048 # 40010800 <_eusrstack+0x2000b800>
    3a1a:	cc3e                	sw	a5,24(sp)
    3a1c:	9fefd0ef          	jal	ra,c1a <GPIO_Init>
    3a20:	47a1                	li	a5,8
    3a22:	084c                	addi	a1,sp,20
    3a24:	80040513          	addi	a0,s0,-2048
    3a28:	4911                	li	s2,4
    3a2a:	00f11a23          	sh	a5,20(sp)
    3a2e:	ce4a                	sw	s2,28(sp)
    3a30:	9eafd0ef          	jal	ra,c1a <GPIO_Init>
    3a34:	084c                	addi	a1,sp,20
    3a36:	80040513          	addi	a0,s0,-2048
    3a3a:	9e0fd0ef          	jal	ra,c1a <GPIO_Init>
    3a3e:	00099663          	bnez	s3,3a4a <Uart2_Init+0x7c>
    3a42:	47b1                	li	a5,12
    3a44:	00f11a23          	sh	a5,20(sp)
    3a48:	ce4a                	sw	s2,28(sp)
    3a4a:	40011537          	lui	a0,0x40011
    3a4e:	084c                	addi	a1,sp,20
    3a50:	80050513          	addi	a0,a0,-2048 # 40010800 <_eusrstack+0x2000b800>
    3a54:	9c6fd0ef          	jal	ra,c1a <GPIO_Init>
    3a58:	40004437          	lui	s0,0x40004
    3a5c:	100c                	addi	a1,sp,32
    3a5e:	000c07b7          	lui	a5,0xc0
    3a62:	40040513          	addi	a0,s0,1024 # 40004400 <_eusrstack+0x1ffff400>
    3a66:	d43e                	sw	a5,40(sp)
    3a68:	d052                	sw	s4,32(sp)
    3a6a:	d202                	sw	zero,36(sp)
    3a6c:	02011623          	sh	zero,44(sp)
    3a70:	d38fd0ef          	jal	ra,fa8 <USART_Init>
    3a74:	4509                	li	a0,2
    3a76:	a8cfd0ef          	jal	ra,d02 <NVIC_PriorityGroupConfig>
    3a7a:	03600793          	li	a5,54
    3a7e:	00f11623          	sh	a5,12(sp)
    3a82:	0068                	addi	a0,sp,12
    3a84:	4785                	li	a5,1
    3a86:	c83e                	sw	a5,16(sp)
    3a88:	00010723          	sb	zero,14(sp)
    3a8c:	a7cfd0ef          	jal	ra,d08 <NVIC_Init>
    3a90:	40040513          	addi	a0,s0,1024
    3a94:	4605                	li	a2,1
    3a96:	52500593          	li	a1,1317
    3a9a:	e02fd0ef          	jal	ra,109c <USART_ITConfig>
    3a9e:	85a6                	mv	a1,s1
    3aa0:	40040513          	addi	a0,s0,1024
    3aa4:	ddcfd0ef          	jal	ra,1080 <USART_Cmd>
    3aa8:	40b6                	lw	ra,76(sp)
    3aaa:	4426                	lw	s0,72(sp)
    3aac:	4496                	lw	s1,68(sp)
    3aae:	4906                	lw	s2,64(sp)
    3ab0:	59f2                	lw	s3,60(sp)
    3ab2:	5a62                	lw	s4,56(sp)
    3ab4:	6161                	addi	sp,sp,80
    3ab6:	8082                	ret

00003ab8 <UART_RXD_Flag>:
    3ab8:	157d                	addi	a0,a0,-1
    3aba:	0ff57513          	andi	a0,a0,255
    3abe:	4789                	li	a5,2
    3ac0:	02a7e363          	bltu	a5,a0,3ae6 <UART_RXD_Flag+0x2e>
    3ac4:	6795                	lui	a5,0x5
    3ac6:	ebc78793          	addi	a5,a5,-324 # 4ebc <CSWTCH.3>
    3aca:	050a                	slli	a0,a0,0x2
    3acc:	953e                	add	a0,a0,a5
    3ace:	4108                	lw	a0,0(a0)
    3ad0:	1141                	addi	sp,sp,-16
    3ad2:	52500593          	li	a1,1317
    3ad6:	c606                	sw	ra,12(sp)
    3ad8:	e28fd0ef          	jal	ra,1100 <USART_GetITStatus>
    3adc:	40b2                	lw	ra,12(sp)
    3ade:	0562                	slli	a0,a0,0x18
    3ae0:	8561                	srai	a0,a0,0x18
    3ae2:	0141                	addi	sp,sp,16
    3ae4:	8082                	ret
    3ae6:	4501                	li	a0,0
    3ae8:	8082                	ret

00003aea <UART_RXD_Flag_Clear>:
    3aea:	157d                	addi	a0,a0,-1
    3aec:	0ff57513          	andi	a0,a0,255
    3af0:	4789                	li	a5,2
    3af2:	00a7ec63          	bltu	a5,a0,3b0a <UART_RXD_Flag_Clear+0x20>
    3af6:	6795                	lui	a5,0x5
    3af8:	050a                	slli	a0,a0,0x2
    3afa:	ebc78793          	addi	a5,a5,-324 # 4ebc <CSWTCH.3>
    3afe:	953e                	add	a0,a0,a5
    3b00:	4108                	lw	a0,0(a0)
    3b02:	52500593          	li	a1,1317
    3b06:	decfd06f          	j	10f2 <USART_ClearFlag>
    3b0a:	8082                	ret

00003b0c <UART_RXD_Receive>:
    3b0c:	157d                	addi	a0,a0,-1
    3b0e:	0ff57513          	andi	a0,a0,255
    3b12:	4789                	li	a5,2
    3b14:	00a7ea63          	bltu	a5,a0,3b28 <UART_RXD_Receive+0x1c>
    3b18:	6795                	lui	a5,0x5
    3b1a:	050a                	slli	a0,a0,0x2
    3b1c:	ebc78793          	addi	a5,a5,-324 # 4ebc <CSWTCH.3>
    3b20:	953e                	add	a0,a0,a5
    3b22:	4108                	lw	a0,0(a0)
    3b24:	db8fd06f          	j	10dc <USART_ReceiveData>
    3b28:	4501                	li	a0,0
    3b2a:	8082                	ret

00003b2c <UART_TXD_Send>:
    3b2c:	157d                	addi	a0,a0,-1
    3b2e:	0ff57513          	andi	a0,a0,255
    3b32:	4789                	li	a5,2
    3b34:	04a7e063          	bltu	a5,a0,3b74 <UART_TXD_Send+0x48>
    3b38:	6795                	lui	a5,0x5
    3b3a:	050a                	slli	a0,a0,0x2
    3b3c:	ebc78793          	addi	a5,a5,-324 # 4ebc <CSWTCH.3>
    3b40:	1141                	addi	sp,sp,-16
    3b42:	953e                	add	a0,a0,a5
    3b44:	c422                	sw	s0,8(sp)
    3b46:	4100                	lw	s0,0(a0)
    3b48:	c226                	sw	s1,4(sp)
    3b4a:	c606                	sw	ra,12(sp)
    3b4c:	84ae                	mv	s1,a1
    3b4e:	04000593          	li	a1,64
    3b52:	8522                	mv	a0,s0
    3b54:	d92fd0ef          	jal	ra,10e6 <USART_GetFlagStatus>
    3b58:	d97d                	beqz	a0,3b4e <UART_TXD_Send+0x22>
    3b5a:	85a6                	mv	a1,s1
    3b5c:	8522                	mv	a0,s0
    3b5e:	d74fd0ef          	jal	ra,10d2 <USART_SendData>
    3b62:	8522                	mv	a0,s0
    3b64:	4422                	lw	s0,8(sp)
    3b66:	40b2                	lw	ra,12(sp)
    3b68:	4492                	lw	s1,4(sp)
    3b6a:	04000593          	li	a1,64
    3b6e:	0141                	addi	sp,sp,16
    3b70:	d82fd06f          	j	10f2 <USART_ClearFlag>
    3b74:	8082                	ret

00003b76 <API_Index>:
    3b76:	00004737          	lui	a4,0x4
    3b7a:	200017b7          	lui	a5,0x20001
    3b7e:	bd270713          	addi	a4,a4,-1070 # 3bd2 <CRC16_CCITT_CalculateBuf>
    3b82:	3ae7ac23          	sw	a4,952(a5) # 200013b8 <API>
    3b86:	00004737          	lui	a4,0x4
    3b8a:	3b878793          	addi	a5,a5,952
    3b8e:	c2470713          	addi	a4,a4,-988 # 3c24 <Hourly_to_Seconds>
    3b92:	c3d8                	sw	a4,4(a5)
    3b94:	00004737          	lui	a4,0x4
    3b98:	c6070713          	addi	a4,a4,-928 # 3c60 <Seconds_to_Hourly>
    3b9c:	c798                	sw	a4,8(a5)
    3b9e:	00004737          	lui	a4,0x4
    3ba2:	cbe70713          	addi	a4,a4,-834 # 3cbe <Over_Time>
    3ba6:	c7d8                	sw	a4,12(a5)
    3ba8:	00004737          	lui	a4,0x4
    3bac:	c0870713          	addi	a4,a4,-1016 # 3c08 <Find_Data>
    3bb0:	cb98                	sw	a4,16(a5)
    3bb2:	8082                	ret

00003bb4 <CRC16_CCITT_CalateByte>:
    3bb4:	0085d793          	srli	a5,a1,0x8
    3bb8:	8fa9                	xor	a5,a5,a0
    3bba:	6515                	lui	a0,0x5
    3bbc:	0786                	slli	a5,a5,0x1
    3bbe:	ec850513          	addi	a0,a0,-312 # 4ec8 <CRC_CCITT_table>
    3bc2:	953e                	add	a0,a0,a5
    3bc4:	00055503          	lhu	a0,0(a0)
    3bc8:	05a2                	slli	a1,a1,0x8
    3bca:	8d2d                	xor	a0,a0,a1
    3bcc:	0542                	slli	a0,a0,0x10
    3bce:	8141                	srli	a0,a0,0x10
    3bd0:	8082                	ret

00003bd2 <CRC16_CCITT_CalculateBuf>:
    3bd2:	1141                	addi	sp,sp,-16
    3bd4:	c226                	sw	s1,4(sp)
    3bd6:	64c1                	lui	s1,0x10
    3bd8:	c422                	sw	s0,8(sp)
    3bda:	c04a                	sw	s2,0(sp)
    3bdc:	c606                	sw	ra,12(sp)
    3bde:	892a                	mv	s2,a0
    3be0:	842e                	mv	s0,a1
    3be2:	4501                	li	a0,0
    3be4:	14fd                	addi	s1,s1,-1
    3be6:	147d                	addi	s0,s0,-1
    3be8:	0442                	slli	s0,s0,0x10
    3bea:	8041                	srli	s0,s0,0x10
    3bec:	00941863          	bne	s0,s1,3bfc <CRC16_CCITT_CalculateBuf+0x2a>
    3bf0:	40b2                	lw	ra,12(sp)
    3bf2:	4422                	lw	s0,8(sp)
    3bf4:	4492                	lw	s1,4(sp)
    3bf6:	4902                	lw	s2,0(sp)
    3bf8:	0141                	addi	sp,sp,16
    3bfa:	8082                	ret
    3bfc:	85aa                	mv	a1,a0
    3bfe:	00094503          	lbu	a0,0(s2)
    3c02:	0905                	addi	s2,s2,1
    3c04:	3f45                	jal	3bb4 <CRC16_CCITT_CalateByte>
    3c06:	b7c5                	j	3be6 <CRC16_CCITT_CalculateBuf+0x14>

00003c08 <Find_Data>:
    3c08:	4781                	li	a5,0
    3c0a:	00c79463          	bne	a5,a2,3c12 <Find_Data+0xa>
    3c0e:	4501                	li	a0,0
    3c10:	8082                	ret
    3c12:	0785                	addi	a5,a5,1
    3c14:	00f50733          	add	a4,a0,a5
    3c18:	fff74703          	lbu	a4,-1(a4)
    3c1c:	fee597e3          	bne	a1,a4,3c0a <Find_Data+0x2>
    3c20:	853e                	mv	a0,a5
    3c22:	8082                	ret

00003c24 <Hourly_to_Seconds>:
    3c24:	00855793          	srli	a5,a0,0x8
    3c28:	0ff7f793          	andi	a5,a5,255
    3c2c:	03c00693          	li	a3,60
    3c30:	02d787b3          	mul	a5,a5,a3
    3c34:	01055713          	srli	a4,a0,0x10
    3c38:	0ff77713          	andi	a4,a4,255
    3c3c:	0ff57513          	andi	a0,a0,255
    3c40:	1141                	addi	sp,sp,-16
    3c42:	97ba                	add	a5,a5,a4
    3c44:	6705                	lui	a4,0x1
    3c46:	e1070713          	addi	a4,a4,-496 # e10 <RCC_GetClocksFreq+0x20>
    3c4a:	02e50533          	mul	a0,a0,a4
    3c4e:	953e                	add	a0,a0,a5
    3c50:	67d5                	lui	a5,0x15
    3c52:	18078793          	addi	a5,a5,384 # 15180 <_data_lma+0xffb0>
    3c56:	00a7d363          	bge	a5,a0,3c5c <Hourly_to_Seconds+0x38>
    3c5a:	853e                	mv	a0,a5
    3c5c:	0141                	addi	sp,sp,16
    3c5e:	8082                	ret

00003c60 <Seconds_to_Hourly>:
    3c60:	6785                	lui	a5,0x1
    3c62:	e1078793          	addi	a5,a5,-496 # e10 <RCC_GetClocksFreq+0x20>
    3c66:	02f54733          	div	a4,a0,a5
    3c6a:	4661                	li	a2,24
    3c6c:	1141                	addi	sp,sp,-16
    3c6e:	86ba                	mv	a3,a4
    3c70:	0ff77713          	andi	a4,a4,255
    3c74:	00e67363          	bgeu	a2,a4,3c7a <Seconds_to_Hourly+0x1a>
    3c78:	46e1                	li	a3,24
    3c7a:	02f567b3          	rem	a5,a0,a5
    3c7e:	00d10423          	sb	a3,8(sp)
    3c82:	03c00693          	li	a3,60
    3c86:	02d7c7b3          	div	a5,a5,a3
    3c8a:	873e                	mv	a4,a5
    3c8c:	0ff7f793          	andi	a5,a5,255
    3c90:	00f6f463          	bgeu	a3,a5,3c98 <Seconds_to_Hourly+0x38>
    3c94:	03c00713          	li	a4,60
    3c98:	00e104a3          	sb	a4,9(sp)
    3c9c:	03c00713          	li	a4,60
    3ca0:	02e56533          	rem	a0,a0,a4
    3ca4:	87aa                	mv	a5,a0
    3ca6:	0ff57513          	andi	a0,a0,255
    3caa:	00a77463          	bgeu	a4,a0,3cb2 <Seconds_to_Hourly+0x52>
    3cae:	03c00793          	li	a5,60
    3cb2:	00f10523          	sb	a5,10(sp)
    3cb6:	4522                	lw	a0,8(sp)
    3cb8:	4581                	li	a1,0
    3cba:	0141                	addi	sp,sp,16
    3cbc:	8082                	ret

00003cbe <Over_Time>:
    3cbe:	411c                	lw	a5,0(a0)
    3cc0:	4158                	lw	a4,4(a0)
    3cc2:	1141                	addi	sp,sp,-16
    3cc4:	439c                	lw	a5,0(a5)
    3cc6:	c422                	sw	s0,8(sp)
    3cc8:	c606                	sw	ra,12(sp)
    3cca:	c226                	sw	s1,4(sp)
    3ccc:	c04a                	sw	s2,0(sp)
    3cce:	842a                	mv	s0,a0
    3cd0:	00f70863          	beq	a4,a5,3ce0 <Over_Time+0x22>
    3cd4:	c15c                	sw	a5,4(a0)
    3cd6:	00050423          	sb	zero,8(a0)
    3cda:	000404a3          	sb	zero,9(s0)
    3cde:	a00d                	j	3d00 <Over_Time+0x42>
    3ce0:	00850783          	lb	a5,8(a0)
    3ce4:	01c52903          	lw	s2,28(a0)
    3ce8:	e795                	bnez	a5,3d14 <Over_Time+0x56>
    3cea:	4785                	li	a5,1
    3cec:	00f50423          	sb	a5,8(a0)
    3cf0:	000504a3          	sb	zero,9(a0)
    3cf4:	00092783          	lw	a5,0(s2)
    3cf8:	c95c                	sw	a5,20(a0)
    3cfa:	00492783          	lw	a5,4(s2)
    3cfe:	cd1c                	sw	a5,24(a0)
    3d00:	00944503          	lbu	a0,9(s0)
    3d04:	40b2                	lw	ra,12(sp)
    3d06:	4422                	lw	s0,8(sp)
    3d08:	0562                	slli	a0,a0,0x18
    3d0a:	4492                	lw	s1,4(sp)
    3d0c:	4902                	lw	s2,0(sp)
    3d0e:	8561                	srai	a0,a0,0x18
    3d10:	0141                	addi	sp,sp,16
    3d12:	8082                	ret
    3d14:	4c0c                	lw	a1,24(s0)
    3d16:	4948                	lw	a0,20(a0)
    3d18:	3731                	jal	3c24 <Hourly_to_Seconds>
    3d1a:	84aa                	mv	s1,a0
    3d1c:	00492583          	lw	a1,4(s2)
    3d20:	00092503          	lw	a0,0(s2)
    3d24:	3701                	jal	3c24 <Hourly_to_Seconds>
    3d26:	00955663          	bge	a0,s1,3d32 <Over_Time+0x74>
    3d2a:	67d5                	lui	a5,0x15
    3d2c:	18078793          	addi	a5,a5,384 # 15180 <_data_lma+0xffb0>
    3d30:	953e                	add	a0,a0,a5
    3d32:	409504b3          	sub	s1,a0,s1
    3d36:	480c                	lw	a1,16(s0)
    3d38:	4448                	lw	a0,12(s0)
    3d3a:	35ed                	jal	3c24 <Hourly_to_Seconds>
    3d3c:	00492683          	lw	a3,4(s2)
    3d40:	4c18                	lw	a4,24(s0)
    3d42:	40e687b3          	sub	a5,a3,a4
    3d46:	00e6f863          	bgeu	a3,a4,3d56 <Over_Time+0x98>
    3d4a:	000f4737          	lui	a4,0xf4
    3d4e:	24070713          	addi	a4,a4,576 # f4240 <_data_lma+0xef070>
    3d52:	14fd                	addi	s1,s1,-1
    3d54:	97ba                	add	a5,a5,a4
    3d56:	4818                	lw	a4,16(s0)
    3d58:	00e7f363          	bgeu	a5,a4,3d5e <Over_Time+0xa0>
    3d5c:	14fd                	addi	s1,s1,-1
    3d5e:	8c89                	sub	s1,s1,a0
    3d60:	f604cde3          	bltz	s1,3cda <Over_Time+0x1c>
    3d64:	07000793          	li	a5,112
    3d68:	00f404a3          	sb	a5,9(s0)
    3d6c:	00a44783          	lbu	a5,10(s0)
    3d70:	00040423          	sb	zero,8(s0)
    3d74:	07e2                	slli	a5,a5,0x18
    3d76:	87e1                	srai	a5,a5,0x18
    3d78:	0017b793          	seqz	a5,a5
    3d7c:	00f40523          	sb	a5,10(s0)
    3d80:	b741                	j	3d00 <Over_Time+0x42>

00003d82 <printchar>:
    3d82:	1101                	addi	sp,sp,-32
    3d84:	ce06                	sw	ra,28(sp)
    3d86:	c62e                	sw	a1,12(sp)
    3d88:	cd15                	beqz	a0,3dc4 <printchar+0x42>
    3d8a:	4118                	lw	a4,0(a0)
    3d8c:	87aa                	mv	a5,a0
    3d8e:	c305                	beqz	a4,3dae <printchar+0x2c>
    3d90:	4158                	lw	a4,4(a0)
    3d92:	557d                	li	a0,-1
    3d94:	cb11                	beqz	a4,3da8 <printchar+0x26>
    3d96:	4685                	li	a3,1
    3d98:	00d71b63          	bne	a4,a3,3dae <printchar+0x2c>
    3d9c:	4798                	lw	a4,8(a5)
    3d9e:	00070023          	sb	zero,0(a4)
    3da2:	0007a223          	sw	zero,4(a5)
    3da6:	4505                	li	a0,1
    3da8:	40f2                	lw	ra,28(sp)
    3daa:	6105                	addi	sp,sp,32
    3dac:	8082                	ret
    3dae:	4798                	lw	a4,8(a5)
    3db0:	46b2                	lw	a3,12(sp)
    3db2:	00d70023          	sb	a3,0(a4)
    3db6:	4798                	lw	a4,8(a5)
    3db8:	0705                	addi	a4,a4,1
    3dba:	c798                	sw	a4,8(a5)
    3dbc:	43d8                	lw	a4,4(a5)
    3dbe:	177d                	addi	a4,a4,-1
    3dc0:	c3d8                	sw	a4,4(a5)
    3dc2:	b7d5                	j	3da6 <printchar+0x24>
    3dc4:	4605                	li	a2,1
    3dc6:	006c                	addi	a1,sp,12
    3dc8:	cc5fd0ef          	jal	ra,1a8c <_write>
    3dcc:	bfe9                	j	3da6 <printchar+0x24>

00003dce <prints>:
    3dce:	7179                	addi	sp,sp,-48
    3dd0:	d422                	sw	s0,40(sp)
    3dd2:	d226                	sw	s1,36(sp)
    3dd4:	ce4e                	sw	s3,28(sp)
    3dd6:	cc52                	sw	s4,24(sp)
    3dd8:	ca56                	sw	s5,20(sp)
    3dda:	d606                	sw	ra,44(sp)
    3ddc:	d04a                	sw	s2,32(sp)
    3dde:	c85a                	sw	s6,16(sp)
    3de0:	8a2a                	mv	s4,a0
    3de2:	8aae                	mv	s5,a1
    3de4:	8432                	mv	s0,a2
    3de6:	4481                	li	s1,0
    3de8:	02000993          	li	s3,32
    3dec:	02064463          	bltz	a2,3e14 <prints+0x46>
    3df0:	009a87b3          	add	a5,s5,s1
    3df4:	00078783          	lb	a5,0(a5)
    3df8:	e39d                	bnez	a5,3e1e <prints+0x50>
    3dfa:	0284d663          	bge	s1,s0,3e26 <prints+0x58>
    3dfe:	02e4d263          	bge	s1,a4,3e22 <prints+0x54>
    3e02:	8c19                	sub	s0,s0,a4
    3e04:	0026f793          	andi	a5,a3,2
    3e08:	02000993          	li	s3,32
    3e0c:	c781                	beqz	a5,3e14 <prints+0x46>
    3e0e:	e319                	bnez	a4,3e14 <prints+0x46>
    3e10:	03000993          	li	s3,48
    3e14:	8a85                	andi	a3,a3,1
    3e16:	4901                	li	s2,0
    3e18:	e69d                	bnez	a3,3e46 <prints+0x78>
    3e1a:	8922                	mv	s2,s0
    3e1c:	a829                	j	3e36 <prints+0x68>
    3e1e:	0485                	addi	s1,s1,1
    3e20:	bfc1                	j	3df0 <prints+0x22>
    3e22:	8c05                	sub	s0,s0,s1
    3e24:	b7c5                	j	3e04 <prints+0x36>
    3e26:	4401                	li	s0,0
    3e28:	bff1                	j	3e04 <prints+0x36>
    3e2a:	85ce                	mv	a1,s3
    3e2c:	8552                	mv	a0,s4
    3e2e:	c63a                	sw	a4,12(sp)
    3e30:	3f89                	jal	3d82 <printchar>
    3e32:	4732                	lw	a4,12(sp)
    3e34:	197d                	addi	s2,s2,-1
    3e36:	ff204ae3          	bgtz	s2,3e2a <prints+0x5c>
    3e3a:	8922                	mv	s2,s0
    3e3c:	00045363          	bgez	s0,3e42 <prints+0x74>
    3e40:	4901                	li	s2,0
    3e42:	41240433          	sub	s0,s0,s2
    3e46:	02e4cb63          	blt	s1,a4,3e7c <prints+0xae>
    3e4a:	84ca                	mv	s1,s2
    3e4c:	412487b3          	sub	a5,s1,s2
    3e50:	97d6                	add	a5,a5,s5
    3e52:	00078583          	lb	a1,0(a5)
    3e56:	ed9d                	bnez	a1,3e94 <prints+0xc6>
    3e58:	8922                	mv	s2,s0
    3e5a:	05204163          	bgtz	s2,3e9c <prints+0xce>
    3e5e:	00045363          	bgez	s0,3e64 <prints+0x96>
    3e62:	4401                	li	s0,0
    3e64:	00940533          	add	a0,s0,s1
    3e68:	50b2                	lw	ra,44(sp)
    3e6a:	5422                	lw	s0,40(sp)
    3e6c:	5492                	lw	s1,36(sp)
    3e6e:	5902                	lw	s2,32(sp)
    3e70:	49f2                	lw	s3,28(sp)
    3e72:	4a62                	lw	s4,24(sp)
    3e74:	4ad2                	lw	s5,20(sp)
    3e76:	4b42                	lw	s6,16(sp)
    3e78:	6145                	addi	sp,sp,48
    3e7a:	8082                	ret
    3e7c:	409704b3          	sub	s1,a4,s1
    3e80:	8b26                	mv	s6,s1
    3e82:	03000593          	li	a1,48
    3e86:	8552                	mv	a0,s4
    3e88:	1b7d                	addi	s6,s6,-1
    3e8a:	3de5                	jal	3d82 <printchar>
    3e8c:	fe0b1be3          	bnez	s6,3e82 <prints+0xb4>
    3e90:	9926                	add	s2,s2,s1
    3e92:	bf65                	j	3e4a <prints+0x7c>
    3e94:	8552                	mv	a0,s4
    3e96:	35f5                	jal	3d82 <printchar>
    3e98:	0485                	addi	s1,s1,1
    3e9a:	bf4d                	j	3e4c <prints+0x7e>
    3e9c:	85ce                	mv	a1,s3
    3e9e:	8552                	mv	a0,s4
    3ea0:	35cd                	jal	3d82 <printchar>
    3ea2:	197d                	addi	s2,s2,-1
    3ea4:	bf5d                	j	3e5a <prints+0x8c>

00003ea6 <printInt>:
    3ea6:	715d                	addi	sp,sp,-80
    3ea8:	c2a6                	sw	s1,68(sp)
    3eaa:	dc52                	sw	s4,56(sp)
    3eac:	c686                	sw	ra,76(sp)
    3eae:	c4a2                	sw	s0,72(sp)
    3eb0:	c0ca                	sw	s2,64(sp)
    3eb2:	de4e                	sw	s3,60(sp)
    3eb4:	da56                	sw	s5,52(sp)
    3eb6:	84ba                	mv	s1,a4
    3eb8:	8a3e                	mv	s4,a5
    3eba:	e19d                	bnez	a1,3ee0 <printInt+0x3a>
    3ebc:	03000793          	li	a5,48
    3ec0:	4701                	li	a4,0
    3ec2:	86d2                	mv	a3,s4
    3ec4:	8626                	mv	a2,s1
    3ec6:	082c                	addi	a1,sp,24
    3ec8:	00f11c23          	sh	a5,24(sp)
    3ecc:	3709                	jal	3dce <prints>
    3ece:	40b6                	lw	ra,76(sp)
    3ed0:	4426                	lw	s0,72(sp)
    3ed2:	4496                	lw	s1,68(sp)
    3ed4:	4906                	lw	s2,64(sp)
    3ed6:	59f2                	lw	s3,60(sp)
    3ed8:	5a62                	lw	s4,56(sp)
    3eda:	5ad2                	lw	s5,52(sp)
    3edc:	6161                	addi	sp,sp,80
    3ede:	8082                	ret
    3ee0:	892a                	mv	s2,a0
    3ee2:	8436                	mv	s0,a3
    3ee4:	8ac6                	mv	s5,a7
    3ee6:	ca91                	beqz	a3,3efa <printInt+0x54>
    3ee8:	47a9                	li	a5,10
    3eea:	4401                	li	s0,0
    3eec:	00f61763          	bne	a2,a5,3efa <printInt+0x54>
    3ef0:	0005d563          	bgez	a1,3efa <printInt+0x54>
    3ef4:	40b005b3          	neg	a1,a1
    3ef8:	4405                	li	s0,1
    3efa:	020107a3          	sb	zero,47(sp)
    3efe:	02f10793          	addi	a5,sp,47
    3f02:	46a5                	li	a3,9
    3f04:	fc680513          	addi	a0,a6,-58 # ffc6 <_data_lma+0xadf6>
    3f08:	02c5f733          	remu	a4,a1,a2
    3f0c:	00e6d363          	bge	a3,a4,3f12 <printInt+0x6c>
    3f10:	972a                	add	a4,a4,a0
    3f12:	03070713          	addi	a4,a4,48
    3f16:	fee78fa3          	sb	a4,-1(a5)
    3f1a:	fff78993          	addi	s3,a5,-1
    3f1e:	02c5d733          	divu	a4,a1,a2
    3f22:	04c5fb63          	bgeu	a1,a2,3f78 <printInt+0xd2>
    3f26:	cc09                	beqz	s0,3f40 <printInt+0x9a>
    3f28:	c8b9                	beqz	s1,3f7e <printInt+0xd8>
    3f2a:	002a7713          	andi	a4,s4,2
    3f2e:	cb21                	beqz	a4,3f7e <printInt+0xd8>
    3f30:	02d00593          	li	a1,45
    3f34:	854a                	mv	a0,s2
    3f36:	c642                	sw	a6,12(sp)
    3f38:	e4bff0ef          	jal	ra,3d82 <printchar>
    3f3c:	4832                	lw	a6,12(sp)
    3f3e:	14fd                	addi	s1,s1,-1
    3f40:	004a7793          	andi	a5,s4,4
    3f44:	c38d                	beqz	a5,3f66 <printInt+0xc0>
    3f46:	06100793          	li	a5,97
    3f4a:	03000593          	li	a1,48
    3f4e:	854a                	mv	a0,s2
    3f50:	02f81f63          	bne	a6,a5,3f8e <printInt+0xe8>
    3f54:	e2fff0ef          	jal	ra,3d82 <printchar>
    3f58:	07800593          	li	a1,120
    3f5c:	854a                	mv	a0,s2
    3f5e:	e25ff0ef          	jal	ra,3d82 <printchar>
    3f62:	0409                	addi	s0,s0,2
    3f64:	14f9                	addi	s1,s1,-2
    3f66:	8756                	mv	a4,s5
    3f68:	86d2                	mv	a3,s4
    3f6a:	8626                	mv	a2,s1
    3f6c:	85ce                	mv	a1,s3
    3f6e:	854a                	mv	a0,s2
    3f70:	e5fff0ef          	jal	ra,3dce <prints>
    3f74:	9522                	add	a0,a0,s0
    3f76:	bfa1                	j	3ece <printInt+0x28>
    3f78:	85ba                	mv	a1,a4
    3f7a:	87ce                	mv	a5,s3
    3f7c:	b771                	j	3f08 <printInt+0x62>
    3f7e:	02d00713          	li	a4,45
    3f82:	fee98fa3          	sb	a4,-1(s3)
    3f86:	4401                	li	s0,0
    3f88:	ffe78993          	addi	s3,a5,-2
    3f8c:	bf55                	j	3f40 <printInt+0x9a>
    3f8e:	df5ff0ef          	jal	ra,3d82 <printchar>
    3f92:	05800593          	li	a1,88
    3f96:	b7d9                	j	3f5c <printInt+0xb6>

00003f98 <printLongLongInt>:
    3f98:	4501                	li	a0,0
    3f9a:	8082                	ret

00003f9c <printDouble>:
    3f9c:	4501                	li	a0,0
    3f9e:	8082                	ret

00003fa0 <print>:
    3fa0:	7139                	addi	sp,sp,-64
    3fa2:	d05a                	sw	s6,32(sp)
    3fa4:	00005b37          	lui	s6,0x5
    3fa8:	dc22                	sw	s0,56(sp)
    3faa:	da26                	sw	s1,52(sp)
    3fac:	d84a                	sw	s2,48(sp)
    3fae:	d64e                	sw	s3,44(sp)
    3fb0:	d452                	sw	s4,40(sp)
    3fb2:	d256                	sw	s5,36(sp)
    3fb4:	ce5e                	sw	s7,28(sp)
    3fb6:	cc62                	sw	s8,24(sp)
    3fb8:	de06                	sw	ra,60(sp)
    3fba:	ca66                	sw	s9,20(sp)
    3fbc:	89aa                	mv	s3,a0
    3fbe:	892e                	mv	s2,a1
    3fc0:	8432                	mv	s0,a2
    3fc2:	4a01                	li	s4,0
    3fc4:	4481                	li	s1,0
    3fc6:	02500b93          	li	s7,37
    3fca:	02b00a93          	li	s5,43
    3fce:	4c29                	li	s8,10
    3fd0:	0c8b0b13          	addi	s6,s6,200 # 50c8 <CRC_CCITT_table+0x200>
    3fd4:	00090583          	lb	a1,0(s2)
    3fd8:	e58d                	bnez	a1,4002 <print+0x62>
    3fda:	00098663          	beqz	s3,3fe6 <print+0x46>
    3fde:	4581                	li	a1,0
    3fe0:	854e                	mv	a0,s3
    3fe2:	da1ff0ef          	jal	ra,3d82 <printchar>
    3fe6:	50f2                	lw	ra,60(sp)
    3fe8:	5462                	lw	s0,56(sp)
    3fea:	8526                	mv	a0,s1
    3fec:	5942                	lw	s2,48(sp)
    3fee:	54d2                	lw	s1,52(sp)
    3ff0:	59b2                	lw	s3,44(sp)
    3ff2:	5a22                	lw	s4,40(sp)
    3ff4:	5a92                	lw	s5,36(sp)
    3ff6:	5b02                	lw	s6,32(sp)
    3ff8:	4bf2                	lw	s7,28(sp)
    3ffa:	4c62                	lw	s8,24(sp)
    3ffc:	4cd2                	lw	s9,20(sp)
    3ffe:	6121                	addi	sp,sp,64
    4000:	8082                	ret
    4002:	01758863          	beq	a1,s7,4012 <print+0x72>
    4006:	854e                	mv	a0,s3
    4008:	d7bff0ef          	jal	ra,3d82 <printchar>
    400c:	0485                	addi	s1,s1,1
    400e:	0905                	addi	s2,s2,1
    4010:	b7d1                	j	3fd4 <print+0x34>
    4012:	00190783          	lb	a5,1(s2)
    4016:	00190c93          	addi	s9,s2,1
    401a:	01779a63          	bne	a5,s7,402e <print+0x8e>
    401e:	02500593          	li	a1,37
    4022:	854e                	mv	a0,s3
    4024:	d5fff0ef          	jal	ra,3d82 <printchar>
    4028:	0485                	addi	s1,s1,1
    402a:	8966                	mv	s2,s9
    402c:	b7cd                	j	400e <print+0x6e>
    402e:	d7d5                	beqz	a5,3fda <print+0x3a>
    4030:	05578763          	beq	a5,s5,407e <print+0xde>
    4034:	00fac863          	blt	s5,a5,4044 <print+0xa4>
    4038:	02300713          	li	a4,35
    403c:	04e78463          	beq	a5,a4,4084 <print+0xe4>
    4040:	4781                	li	a5,0
    4042:	a005                	j	4062 <print+0xc2>
    4044:	02d00713          	li	a4,45
    4048:	00e78a63          	beq	a5,a4,405c <print+0xbc>
    404c:	03000713          	li	a4,48
    4050:	fee798e3          	bne	a5,a4,4040 <print+0xa0>
    4054:	00290c93          	addi	s9,s2,2
    4058:	4789                	li	a5,2
    405a:	a021                	j	4062 <print+0xc2>
    405c:	00290c93          	addi	s9,s2,2
    4060:	4785                	li	a5,1
    4062:	000c8703          	lb	a4,0(s9)
    4066:	05570363          	beq	a4,s5,40ac <print+0x10c>
    406a:	02eac163          	blt	s5,a4,408c <print+0xec>
    406e:	02300693          	li	a3,35
    4072:	02d70b63          	beq	a4,a3,40a8 <print+0x108>
    4076:	8966                	mv	s2,s9
    4078:	4601                	li	a2,0
    407a:	45a5                	li	a1,9
    407c:	a835                	j	40b8 <print+0x118>
    407e:	00290c93          	addi	s9,s2,2
    4082:	bf7d                	j	4040 <print+0xa0>
    4084:	00290c93          	addi	s9,s2,2
    4088:	4791                	li	a5,4
    408a:	bfe1                	j	4062 <print+0xc2>
    408c:	02d00693          	li	a3,45
    4090:	00d70963          	beq	a4,a3,40a2 <print+0x102>
    4094:	03000693          	li	a3,48
    4098:	fcd71fe3          	bne	a4,a3,4076 <print+0xd6>
    409c:	0027e793          	ori	a5,a5,2
    40a0:	a031                	j	40ac <print+0x10c>
    40a2:	0c85                	addi	s9,s9,1
    40a4:	4785                	li	a5,1
    40a6:	bfc1                	j	4076 <print+0xd6>
    40a8:	0047e793          	ori	a5,a5,4
    40ac:	0c85                	addi	s9,s9,1
    40ae:	b7e1                	j	4076 <print+0xd6>
    40b0:	03860633          	mul	a2,a2,s8
    40b4:	0905                	addi	s2,s2,1
    40b6:	9636                	add	a2,a2,a3
    40b8:	00090703          	lb	a4,0(s2)
    40bc:	fd070693          	addi	a3,a4,-48
    40c0:	0ff6f513          	andi	a0,a3,255
    40c4:	fea5f6e3          	bgeu	a1,a0,40b0 <print+0x110>
    40c8:	02e00593          	li	a1,46
    40cc:	4699                	li	a3,6
    40ce:	00b71e63          	bne	a4,a1,40ea <print+0x14a>
    40d2:	0905                	addi	s2,s2,1
    40d4:	4681                	li	a3,0
    40d6:	45a5                	li	a1,9
    40d8:	00090703          	lb	a4,0(s2)
    40dc:	fd070713          	addi	a4,a4,-48
    40e0:	0ff77513          	andi	a0,a4,255
    40e4:	02a5f563          	bgeu	a1,a0,410e <print+0x16e>
    40e8:	8a36                	mv	s4,a3
    40ea:	00090703          	lb	a4,0(s2)
    40ee:	06a00593          	li	a1,106
    40f2:	0ab70263          	beq	a4,a1,4196 <print+0x1f6>
    40f6:	02e5c163          	blt	a1,a4,4118 <print+0x178>
    40fa:	04c00593          	li	a1,76
    40fe:	08b70c63          	beq	a4,a1,4196 <print+0x1f6>
    4102:	06800593          	li	a1,104
    4106:	08b70163          	beq	a4,a1,4188 <print+0x1e8>
    410a:	4581                	li	a1,0
    410c:	a02d                	j	4136 <print+0x196>
    410e:	038686b3          	mul	a3,a3,s8
    4112:	0905                	addi	s2,s2,1
    4114:	96ba                	add	a3,a3,a4
    4116:	b7c9                	j	40d8 <print+0x138>
    4118:	07400593          	li	a1,116
    411c:	06b70d63          	beq	a4,a1,4196 <print+0x1f6>
    4120:	07a00593          	li	a1,122
    4124:	06b70963          	beq	a4,a1,4196 <print+0x1f6>
    4128:	06c00513          	li	a0,108
    412c:	4581                	li	a1,0
    412e:	00a71463          	bne	a4,a0,4136 <print+0x196>
    4132:	0905                	addi	s2,s2,1
    4134:	4591                	li	a1,4
    4136:	00090703          	lb	a4,0(s2)
    413a:	06000513          	li	a0,96
    413e:	06100813          	li	a6,97
    4142:	00e54463          	blt	a0,a4,414a <print+0x1aa>
    4146:	04100813          	li	a6,65
    414a:	06700513          	li	a0,103
    414e:	06e54163          	blt	a0,a4,41b0 <print+0x210>
    4152:	06500513          	li	a0,101
    4156:	14a75663          	bge	a4,a0,42a2 <print+0x302>
    415a:	04700513          	li	a0,71
    415e:	02e54e63          	blt	a0,a4,419a <print+0x1fa>
    4162:	04500593          	li	a1,69
    4166:	12b75e63          	bge	a4,a1,42a2 <print+0x302>
    416a:	04300693          	li	a3,67
    416e:	ead710e3          	bne	a4,a3,400e <print+0x6e>
    4172:	4018                	lw	a4,0(s0)
    4174:	00440c93          	addi	s9,s0,4
    4178:	000106a3          	sb	zero,13(sp)
    417c:	00e10623          	sb	a4,12(sp)
    4180:	86be                	mv	a3,a5
    4182:	4701                	li	a4,0
    4184:	006c                	addi	a1,sp,12
    4186:	a041                	j	4206 <print+0x266>
    4188:	00190503          	lb	a0,1(s2)
    418c:	4581                	li	a1,0
    418e:	fae514e3          	bne	a0,a4,4136 <print+0x196>
    4192:	0909                	addi	s2,s2,2
    4194:	b74d                	j	4136 <print+0x196>
    4196:	0905                	addi	s2,s2,1
    4198:	bf8d                	j	410a <print+0x16a>
    419a:	06300693          	li	a3,99
    419e:	fcd70ae3          	beq	a4,a3,4172 <print+0x1d2>
    41a2:	06e6c663          	blt	a3,a4,420e <print+0x26e>
    41a6:	05800693          	li	a3,88
    41aa:	02d70363          	beq	a4,a3,41d0 <print+0x230>
    41ae:	b585                	j	400e <print+0x6e>
    41b0:	07300693          	li	a3,115
    41b4:	04d70163          	beq	a4,a3,41f6 <print+0x256>
    41b8:	02e6c863          	blt	a3,a4,41e8 <print+0x248>
    41bc:	06f00693          	li	a3,111
    41c0:	0ad70e63          	beq	a4,a3,427c <print+0x2dc>
    41c4:	07000693          	li	a3,112
    41c8:	0047e793          	ori	a5,a5,4
    41cc:	e4d711e3          	bne	a4,a3,400e <print+0x6e>
    41d0:	cdd9                	beqz	a1,426e <print+0x2ce>
    41d2:	041d                	addi	s0,s0,7
    41d4:	ff847593          	andi	a1,s0,-8
    41d8:	88c2                	mv	a7,a6
    41da:	00858413          	addi	s0,a1,8
    41de:	883e                	mv	a6,a5
    41e0:	4701                	li	a4,0
    41e2:	87b2                	mv	a5,a2
    41e4:	46c1                	li	a3,16
    41e6:	a83d                	j	4224 <print+0x284>
    41e8:	07500693          	li	a3,117
    41ec:	06d70063          	beq	a4,a3,424c <print+0x2ac>
    41f0:	07800693          	li	a3,120
    41f4:	bf5d                	j	41aa <print+0x20a>
    41f6:	4018                	lw	a4,0(s0)
    41f8:	00440c93          	addi	s9,s0,4
    41fc:	85da                	mv	a1,s6
    41fe:	c311                	beqz	a4,4202 <print+0x262>
    4200:	85ba                	mv	a1,a4
    4202:	8752                	mv	a4,s4
    4204:	86be                	mv	a3,a5
    4206:	854e                	mv	a0,s3
    4208:	bc7ff0ef          	jal	ra,3dce <prints>
    420c:	a82d                	j	4246 <print+0x2a6>
    420e:	c195                	beqz	a1,4232 <print+0x292>
    4210:	041d                	addi	s0,s0,7
    4212:	ff847593          	andi	a1,s0,-8
    4216:	88c2                	mv	a7,a6
    4218:	00858413          	addi	s0,a1,8
    421c:	883e                	mv	a6,a5
    421e:	4705                	li	a4,1
    4220:	87b2                	mv	a5,a2
    4222:	46a9                	li	a3,10
    4224:	41d0                	lw	a2,4(a1)
    4226:	418c                	lw	a1,0(a1)
    4228:	854e                	mv	a0,s3
    422a:	d6fff0ef          	jal	ra,3f98 <printLongLongInt>
    422e:	94aa                	add	s1,s1,a0
    4230:	bbf9                	j	400e <print+0x6e>
    4232:	00440c93          	addi	s9,s0,4
    4236:	88d2                	mv	a7,s4
    4238:	8732                	mv	a4,a2
    423a:	4685                	li	a3,1
    423c:	4629                	li	a2,10
    423e:	400c                	lw	a1,0(s0)
    4240:	854e                	mv	a0,s3
    4242:	c65ff0ef          	jal	ra,3ea6 <printInt>
    4246:	94aa                	add	s1,s1,a0
    4248:	8466                	mv	s0,s9
    424a:	b3d1                	j	400e <print+0x6e>
    424c:	c999                	beqz	a1,4262 <print+0x2c2>
    424e:	041d                	addi	s0,s0,7
    4250:	ff847593          	andi	a1,s0,-8
    4254:	88c2                	mv	a7,a6
    4256:	00858413          	addi	s0,a1,8
    425a:	883e                	mv	a6,a5
    425c:	4701                	li	a4,0
    425e:	87b2                	mv	a5,a2
    4260:	b7c9                	j	4222 <print+0x282>
    4262:	00440c93          	addi	s9,s0,4
    4266:	88d2                	mv	a7,s4
    4268:	8732                	mv	a4,a2
    426a:	4681                	li	a3,0
    426c:	bfc1                	j	423c <print+0x29c>
    426e:	8732                	mv	a4,a2
    4270:	00440c93          	addi	s9,s0,4
    4274:	88d2                	mv	a7,s4
    4276:	4681                	li	a3,0
    4278:	4641                	li	a2,16
    427a:	b7d1                	j	423e <print+0x29e>
    427c:	cd81                	beqz	a1,4294 <print+0x2f4>
    427e:	041d                	addi	s0,s0,7
    4280:	ff847593          	andi	a1,s0,-8
    4284:	88c2                	mv	a7,a6
    4286:	00858413          	addi	s0,a1,8
    428a:	883e                	mv	a6,a5
    428c:	4701                	li	a4,0
    428e:	87b2                	mv	a5,a2
    4290:	46a1                	li	a3,8
    4292:	bf49                	j	4224 <print+0x284>
    4294:	8732                	mv	a4,a2
    4296:	00440c93          	addi	s9,s0,4
    429a:	88d2                	mv	a7,s4
    429c:	4681                	li	a3,0
    429e:	4621                	li	a2,8
    42a0:	bf79                	j	423e <print+0x29e>
    42a2:	041d                	addi	s0,s0,7
    42a4:	ff847593          	andi	a1,s0,-8
    42a8:	00858413          	addi	s0,a1,8
    42ac:	8732                	mv	a4,a2
    42ae:	41d0                	lw	a2,4(a1)
    42b0:	418c                	lw	a1,0(a1)
    42b2:	88c2                	mv	a7,a6
    42b4:	854e                	mv	a0,s3
    42b6:	883e                	mv	a6,a5
    42b8:	87b6                	mv	a5,a3
    42ba:	46a9                	li	a3,10
    42bc:	ce1ff0ef          	jal	ra,3f9c <printDouble>
    42c0:	b7bd                	j	422e <print+0x28e>

000042c2 <printf>:
    42c2:	7139                	addi	sp,sp,-64
    42c4:	d22e                	sw	a1,36(sp)
    42c6:	d432                	sw	a2,40(sp)
    42c8:	85aa                	mv	a1,a0
    42ca:	1050                	addi	a2,sp,36
    42cc:	4501                	li	a0,0
    42ce:	ce06                	sw	ra,28(sp)
    42d0:	d636                	sw	a3,44(sp)
    42d2:	d83a                	sw	a4,48(sp)
    42d4:	da3e                	sw	a5,52(sp)
    42d6:	dc42                	sw	a6,56(sp)
    42d8:	de46                	sw	a7,60(sp)
    42da:	c632                	sw	a2,12(sp)
    42dc:	cc5ff0ef          	jal	ra,3fa0 <print>
    42e0:	40f2                	lw	ra,28(sp)
    42e2:	6121                	addi	sp,sp,64
    42e4:	8082                	ret

000042e6 <sprintf>:
    42e6:	7139                	addi	sp,sp,-64
    42e8:	d432                	sw	a2,40(sp)
    42ea:	da3e                	sw	a5,52(sp)
    42ec:	c62a                	sw	a0,12(sp)
    42ee:	1030                	addi	a2,sp,40
    42f0:	57fd                	li	a5,-1
    42f2:	0048                	addi	a0,sp,4
    42f4:	ce06                	sw	ra,28(sp)
    42f6:	d636                	sw	a3,44(sp)
    42f8:	d83a                	sw	a4,48(sp)
    42fa:	dc42                	sw	a6,56(sp)
    42fc:	de46                	sw	a7,60(sp)
    42fe:	c202                	sw	zero,4(sp)
    4300:	c43e                	sw	a5,8(sp)
    4302:	c032                	sw	a2,0(sp)
    4304:	c9dff0ef          	jal	ra,3fa0 <print>
    4308:	40f2                	lw	ra,28(sp)
    430a:	6121                	addi	sp,sp,64
    430c:	8082                	ret

0000430e <puts>:
    430e:	1101                	addi	sp,sp,-32
    4310:	cc22                	sw	s0,24(sp)
    4312:	ca26                	sw	s1,20(sp)
    4314:	ce06                	sw	ra,28(sp)
    4316:	00054783          	lbu	a5,0(a0)
    431a:	84aa                	mv	s1,a0
    431c:	4401                	li	s0,0
    431e:	00f107a3          	sb	a5,15(sp)
    4322:	00f10783          	lb	a5,15(sp)
    4326:	0405                	addi	s0,s0,1
    4328:	e385                	bnez	a5,4348 <puts+0x3a>
    432a:	47a9                	li	a5,10
    432c:	00f10593          	addi	a1,sp,15
    4330:	4605                	li	a2,1
    4332:	4501                	li	a0,0
    4334:	00f107a3          	sb	a5,15(sp)
    4338:	f54fd0ef          	jal	ra,1a8c <_write>
    433c:	8522                	mv	a0,s0
    433e:	40f2                	lw	ra,28(sp)
    4340:	4462                	lw	s0,24(sp)
    4342:	44d2                	lw	s1,20(sp)
    4344:	6105                	addi	sp,sp,32
    4346:	8082                	ret
    4348:	4605                	li	a2,1
    434a:	00f10593          	addi	a1,sp,15
    434e:	4501                	li	a0,0
    4350:	f3cfd0ef          	jal	ra,1a8c <_write>
    4354:	008487b3          	add	a5,s1,s0
    4358:	0007c783          	lbu	a5,0(a5)
    435c:	00f107a3          	sb	a5,15(sp)
    4360:	b7c9                	j	4322 <puts+0x14>

00004362 <__udivdi3>:
    4362:	87b6                	mv	a5,a3
    4364:	88b2                	mv	a7,a2
    4366:	832a                	mv	t1,a0
    4368:	882e                	mv	a6,a1
    436a:	14069d63          	bnez	a3,44c4 <__udivdi3+0x162>
    436e:	0ac5f963          	bgeu	a1,a2,4420 <__udivdi3+0xbe>
    4372:	6741                	lui	a4,0x10
    4374:	1ae66e63          	bltu	a2,a4,4530 <__udivdi3+0x1ce>
    4378:	010007b7          	lui	a5,0x1000
    437c:	34f66363          	bltu	a2,a5,46c2 <__udivdi3+0x360>
    4380:	01865693          	srli	a3,a2,0x18
    4384:	47e1                	li	a5,24
    4386:	00001717          	auipc	a4,0x1
    438a:	d4a70713          	addi	a4,a4,-694 # 50d0 <__clz_tab>
    438e:	9736                	add	a4,a4,a3
    4390:	00074703          	lbu	a4,0(a4)
    4394:	97ba                	add	a5,a5,a4
    4396:	02000713          	li	a4,32
    439a:	8f1d                	sub	a4,a4,a5
    439c:	cb19                	beqz	a4,43b2 <__udivdi3+0x50>
    439e:	00e59833          	sll	a6,a1,a4
    43a2:	00f557b3          	srl	a5,a0,a5
    43a6:	00e618b3          	sll	a7,a2,a4
    43aa:	0107e833          	or	a6,a5,a6
    43ae:	00e51333          	sll	t1,a0,a4
    43b2:	0108d613          	srli	a2,a7,0x10
    43b6:	02c85533          	divu	a0,a6,a2
    43ba:	01089693          	slli	a3,a7,0x10
    43be:	82c1                	srli	a3,a3,0x10
    43c0:	01035793          	srli	a5,t1,0x10
    43c4:	02c87733          	remu	a4,a6,a2
    43c8:	02a685b3          	mul	a1,a3,a0
    43cc:	0742                	slli	a4,a4,0x10
    43ce:	00f76833          	or	a6,a4,a5
    43d2:	00b87a63          	bgeu	a6,a1,43e6 <__udivdi3+0x84>
    43d6:	9846                	add	a6,a6,a7
    43d8:	fff50793          	addi	a5,a0,-1
    43dc:	01186463          	bltu	a6,a7,43e4 <__udivdi3+0x82>
    43e0:	30b86763          	bltu	a6,a1,46ee <__udivdi3+0x38c>
    43e4:	853e                	mv	a0,a5
    43e6:	40b80833          	sub	a6,a6,a1
    43ea:	02c85733          	divu	a4,a6,a2
    43ee:	0342                	slli	t1,t1,0x10
    43f0:	01035313          	srli	t1,t1,0x10
    43f4:	02c87833          	remu	a6,a6,a2
    43f8:	02e686b3          	mul	a3,a3,a4
    43fc:	0842                	slli	a6,a6,0x10
    43fe:	00686833          	or	a6,a6,t1
    4402:	00d87b63          	bgeu	a6,a3,4418 <__udivdi3+0xb6>
    4406:	9846                	add	a6,a6,a7
    4408:	fff70793          	addi	a5,a4,-1
    440c:	01186563          	bltu	a6,a7,4416 <__udivdi3+0xb4>
    4410:	1779                	addi	a4,a4,-2
    4412:	00d86363          	bltu	a6,a3,4418 <__udivdi3+0xb6>
    4416:	873e                	mv	a4,a5
    4418:	0542                	slli	a0,a0,0x10
    441a:	8d59                	or	a0,a0,a4
    441c:	4581                	li	a1,0
    441e:	8082                	ret
    4420:	e601                	bnez	a2,4428 <__udivdi3+0xc6>
    4422:	4705                	li	a4,1
    4424:	02c758b3          	divu	a7,a4,a2
    4428:	6741                	lui	a4,0x10
    442a:	0ee8ea63          	bltu	a7,a4,451e <__udivdi3+0x1bc>
    442e:	010007b7          	lui	a5,0x1000
    4432:	28f8ec63          	bltu	a7,a5,46ca <__udivdi3+0x368>
    4436:	0188d693          	srli	a3,a7,0x18
    443a:	47e1                	li	a5,24
    443c:	00001717          	auipc	a4,0x1
    4440:	c9470713          	addi	a4,a4,-876 # 50d0 <__clz_tab>
    4444:	9736                	add	a4,a4,a3
    4446:	00074683          	lbu	a3,0(a4)
    444a:	96be                	add	a3,a3,a5
    444c:	02000793          	li	a5,32
    4450:	8f95                	sub	a5,a5,a3
    4452:	ebe5                	bnez	a5,4542 <__udivdi3+0x1e0>
    4454:	01089e93          	slli	t4,a7,0x10
    4458:	41158733          	sub	a4,a1,a7
    445c:	0108df13          	srli	t5,a7,0x10
    4460:	010ede93          	srli	t4,t4,0x10
    4464:	4585                	li	a1,1
    4466:	01035793          	srli	a5,t1,0x10
    446a:	03e75533          	divu	a0,a4,t5
    446e:	03e77733          	remu	a4,a4,t5
    4472:	03d506b3          	mul	a3,a0,t4
    4476:	0742                	slli	a4,a4,0x10
    4478:	8fd9                	or	a5,a5,a4
    447a:	00d7fa63          	bgeu	a5,a3,448e <__udivdi3+0x12c>
    447e:	97c6                	add	a5,a5,a7
    4480:	fff50713          	addi	a4,a0,-1
    4484:	0117e463          	bltu	a5,a7,448c <__udivdi3+0x12a>
    4488:	26d7e663          	bltu	a5,a3,46f4 <__udivdi3+0x392>
    448c:	853a                	mv	a0,a4
    448e:	8f95                	sub	a5,a5,a3
    4490:	03e7d733          	divu	a4,a5,t5
    4494:	0342                	slli	t1,t1,0x10
    4496:	01035313          	srli	t1,t1,0x10
    449a:	03e7f7b3          	remu	a5,a5,t5
    449e:	03d70eb3          	mul	t4,a4,t4
    44a2:	07c2                	slli	a5,a5,0x10
    44a4:	0067e7b3          	or	a5,a5,t1
    44a8:	01d7fb63          	bgeu	a5,t4,44be <__udivdi3+0x15c>
    44ac:	97c6                	add	a5,a5,a7
    44ae:	fff70693          	addi	a3,a4,-1
    44b2:	0117e563          	bltu	a5,a7,44bc <__udivdi3+0x15a>
    44b6:	1779                	addi	a4,a4,-2
    44b8:	01d7e363          	bltu	a5,t4,44be <__udivdi3+0x15c>
    44bc:	8736                	mv	a4,a3
    44be:	0542                	slli	a0,a0,0x10
    44c0:	8d59                	or	a0,a0,a4
    44c2:	8082                	ret
    44c4:	04d5e263          	bltu	a1,a3,4508 <__udivdi3+0x1a6>
    44c8:	67c1                	lui	a5,0x10
    44ca:	04f6e263          	bltu	a3,a5,450e <__udivdi3+0x1ac>
    44ce:	010007b7          	lui	a5,0x1000
    44d2:	1ef6e463          	bltu	a3,a5,46ba <__udivdi3+0x358>
    44d6:	0186d713          	srli	a4,a3,0x18
    44da:	4861                	li	a6,24
    44dc:	00001797          	auipc	a5,0x1
    44e0:	bf478793          	addi	a5,a5,-1036 # 50d0 <__clz_tab>
    44e4:	97ba                	add	a5,a5,a4
    44e6:	0007c703          	lbu	a4,0(a5)
    44ea:	02000e13          	li	t3,32
    44ee:	9742                	add	a4,a4,a6
    44f0:	40ee0e33          	sub	t3,t3,a4
    44f4:	0c0e1a63          	bnez	t3,45c8 <__udivdi3+0x266>
    44f8:	1cb6ed63          	bltu	a3,a1,46d2 <__udivdi3+0x370>
    44fc:	00c53533          	sltu	a0,a0,a2
    4500:	00154513          	xori	a0,a0,1
    4504:	4581                	li	a1,0
    4506:	8082                	ret
    4508:	4581                	li	a1,0
    450a:	4501                	li	a0,0
    450c:	8082                	ret
    450e:	0ff00793          	li	a5,255
    4512:	1cd7f363          	bgeu	a5,a3,46d8 <__udivdi3+0x376>
    4516:	0086d713          	srli	a4,a3,0x8
    451a:	4821                	li	a6,8
    451c:	b7c1                	j	44dc <__udivdi3+0x17a>
    451e:	0ff00713          	li	a4,255
    4522:	86c6                	mv	a3,a7
    4524:	f1177ce3          	bgeu	a4,a7,443c <__udivdi3+0xda>
    4528:	0088d693          	srli	a3,a7,0x8
    452c:	47a1                	li	a5,8
    452e:	b739                	j	443c <__udivdi3+0xda>
    4530:	0ff00713          	li	a4,255
    4534:	86b2                	mv	a3,a2
    4536:	e4c778e3          	bgeu	a4,a2,4386 <__udivdi3+0x24>
    453a:	00865693          	srli	a3,a2,0x8
    453e:	47a1                	li	a5,8
    4540:	b599                	j	4386 <__udivdi3+0x24>
    4542:	00f898b3          	sll	a7,a7,a5
    4546:	00d5d633          	srl	a2,a1,a3
    454a:	0108df13          	srli	t5,a7,0x10
    454e:	03e65e33          	divu	t3,a2,t5
    4552:	00f59733          	sll	a4,a1,a5
    4556:	00d556b3          	srl	a3,a0,a3
    455a:	8f55                	or	a4,a4,a3
    455c:	01089e93          	slli	t4,a7,0x10
    4560:	010ede93          	srli	t4,t4,0x10
    4564:	00f51333          	sll	t1,a0,a5
    4568:	01075593          	srli	a1,a4,0x10
    456c:	03e676b3          	remu	a3,a2,t5
    4570:	03ce87b3          	mul	a5,t4,t3
    4574:	06c2                	slli	a3,a3,0x10
    4576:	8ecd                	or	a3,a3,a1
    4578:	00f6fb63          	bgeu	a3,a5,458e <__udivdi3+0x22c>
    457c:	96c6                	add	a3,a3,a7
    457e:	fffe0613          	addi	a2,t3,-1
    4582:	1716e463          	bltu	a3,a7,46ea <__udivdi3+0x388>
    4586:	16f6f263          	bgeu	a3,a5,46ea <__udivdi3+0x388>
    458a:	1e79                	addi	t3,t3,-2
    458c:	96c6                	add	a3,a3,a7
    458e:	8e9d                	sub	a3,a3,a5
    4590:	03e6d633          	divu	a2,a3,t5
    4594:	01071793          	slli	a5,a4,0x10
    4598:	83c1                	srli	a5,a5,0x10
    459a:	03e6f6b3          	remu	a3,a3,t5
    459e:	02ce8533          	mul	a0,t4,a2
    45a2:	01069713          	slli	a4,a3,0x10
    45a6:	8f5d                	or	a4,a4,a5
    45a8:	00a77b63          	bgeu	a4,a0,45be <__udivdi3+0x25c>
    45ac:	9746                	add	a4,a4,a7
    45ae:	fff60793          	addi	a5,a2,-1
    45b2:	13176863          	bltu	a4,a7,46e2 <__udivdi3+0x380>
    45b6:	12a77663          	bgeu	a4,a0,46e2 <__udivdi3+0x380>
    45ba:	1679                	addi	a2,a2,-2
    45bc:	9746                	add	a4,a4,a7
    45be:	010e1593          	slli	a1,t3,0x10
    45c2:	8f09                	sub	a4,a4,a0
    45c4:	8dd1                	or	a1,a1,a2
    45c6:	b545                	j	4466 <__udivdi3+0x104>
    45c8:	00e657b3          	srl	a5,a2,a4
    45cc:	01c696b3          	sll	a3,a3,t3
    45d0:	8edd                	or	a3,a3,a5
    45d2:	00e5d333          	srl	t1,a1,a4
    45d6:	0106df13          	srli	t5,a3,0x10
    45da:	03e357b3          	divu	a5,t1,t5
    45de:	01069e93          	slli	t4,a3,0x10
    45e2:	010ede93          	srli	t4,t4,0x10
    45e6:	01c59833          	sll	a6,a1,t3
    45ea:	00e55733          	srl	a4,a0,a4
    45ee:	01076833          	or	a6,a4,a6
    45f2:	01085893          	srli	a7,a6,0x10
    45f6:	01c61633          	sll	a2,a2,t3
    45fa:	03e37333          	remu	t1,t1,t5
    45fe:	02fe85b3          	mul	a1,t4,a5
    4602:	0342                	slli	t1,t1,0x10
    4604:	011368b3          	or	a7,t1,a7
    4608:	00b8fb63          	bgeu	a7,a1,461e <__udivdi3+0x2bc>
    460c:	98b6                	add	a7,a7,a3
    460e:	fff78713          	addi	a4,a5,-1
    4612:	0cd8ea63          	bltu	a7,a3,46e6 <__udivdi3+0x384>
    4616:	0cb8f863          	bgeu	a7,a1,46e6 <__udivdi3+0x384>
    461a:	17f9                	addi	a5,a5,-2
    461c:	98b6                	add	a7,a7,a3
    461e:	40b888b3          	sub	a7,a7,a1
    4622:	03e8d733          	divu	a4,a7,t5
    4626:	0842                	slli	a6,a6,0x10
    4628:	01085813          	srli	a6,a6,0x10
    462c:	03e8f8b3          	remu	a7,a7,t5
    4630:	02ee8333          	mul	t1,t4,a4
    4634:	08c2                	slli	a7,a7,0x10
    4636:	0108e5b3          	or	a1,a7,a6
    463a:	0065fb63          	bgeu	a1,t1,4650 <__udivdi3+0x2ee>
    463e:	95b6                	add	a1,a1,a3
    4640:	fff70813          	addi	a6,a4,-1
    4644:	08d5ed63          	bltu	a1,a3,46de <__udivdi3+0x37c>
    4648:	0865fb63          	bgeu	a1,t1,46de <__udivdi3+0x37c>
    464c:	1779                	addi	a4,a4,-2
    464e:	95b6                	add	a1,a1,a3
    4650:	07c2                	slli	a5,a5,0x10
    4652:	6f41                	lui	t5,0x10
    4654:	8fd9                	or	a5,a5,a4
    4656:	ffff0713          	addi	a4,t5,-1 # ffff <_data_lma+0xae2f>
    465a:	00e7f6b3          	and	a3,a5,a4
    465e:	0107d893          	srli	a7,a5,0x10
    4662:	8f71                	and	a4,a4,a2
    4664:	8241                	srli	a2,a2,0x10
    4666:	02e68eb3          	mul	t4,a3,a4
    466a:	406585b3          	sub	a1,a1,t1
    466e:	02c686b3          	mul	a3,a3,a2
    4672:	010ed813          	srli	a6,t4,0x10
    4676:	02e88733          	mul	a4,a7,a4
    467a:	96ba                	add	a3,a3,a4
    467c:	96c2                	add	a3,a3,a6
    467e:	02c88633          	mul	a2,a7,a2
    4682:	00e6f363          	bgeu	a3,a4,4688 <__udivdi3+0x326>
    4686:	967a                	add	a2,a2,t5
    4688:	0106d893          	srli	a7,a3,0x10
    468c:	9646                	add	a2,a2,a7
    468e:	02c5e263          	bltu	a1,a2,46b2 <__udivdi3+0x350>
    4692:	00c58563          	beq	a1,a2,469c <__udivdi3+0x33a>
    4696:	853e                	mv	a0,a5
    4698:	4581                	li	a1,0
    469a:	8082                	ret
    469c:	6741                	lui	a4,0x10
    469e:	177d                	addi	a4,a4,-1
    46a0:	8ef9                	and	a3,a3,a4
    46a2:	06c2                	slli	a3,a3,0x10
    46a4:	00eefeb3          	and	t4,t4,a4
    46a8:	01c51533          	sll	a0,a0,t3
    46ac:	96f6                	add	a3,a3,t4
    46ae:	fed574e3          	bgeu	a0,a3,4696 <__udivdi3+0x334>
    46b2:	fff78513          	addi	a0,a5,-1
    46b6:	4581                	li	a1,0
    46b8:	8082                	ret
    46ba:	0106d713          	srli	a4,a3,0x10
    46be:	4841                	li	a6,16
    46c0:	bd31                	j	44dc <__udivdi3+0x17a>
    46c2:	01065693          	srli	a3,a2,0x10
    46c6:	47c1                	li	a5,16
    46c8:	b97d                	j	4386 <__udivdi3+0x24>
    46ca:	0108d693          	srli	a3,a7,0x10
    46ce:	47c1                	li	a5,16
    46d0:	b3b5                	j	443c <__udivdi3+0xda>
    46d2:	4581                	li	a1,0
    46d4:	4505                	li	a0,1
    46d6:	8082                	ret
    46d8:	8736                	mv	a4,a3
    46da:	4801                	li	a6,0
    46dc:	b501                	j	44dc <__udivdi3+0x17a>
    46de:	8742                	mv	a4,a6
    46e0:	bf85                	j	4650 <__udivdi3+0x2ee>
    46e2:	863e                	mv	a2,a5
    46e4:	bde9                	j	45be <__udivdi3+0x25c>
    46e6:	87ba                	mv	a5,a4
    46e8:	bf1d                	j	461e <__udivdi3+0x2bc>
    46ea:	8e32                	mv	t3,a2
    46ec:	b54d                	j	458e <__udivdi3+0x22c>
    46ee:	1579                	addi	a0,a0,-2
    46f0:	9846                	add	a6,a6,a7
    46f2:	b9d5                	j	43e6 <__udivdi3+0x84>
    46f4:	1579                	addi	a0,a0,-2
    46f6:	97c6                	add	a5,a5,a7
    46f8:	bb59                	j	448e <__udivdi3+0x12c>

000046fa <__umoddi3>:
    46fa:	87b6                	mv	a5,a3
    46fc:	8832                	mv	a6,a2
    46fe:	832a                	mv	t1,a0
    4700:	872e                	mv	a4,a1
    4702:	8e2e                	mv	t3,a1
    4704:	14069363          	bnez	a3,484a <__umoddi3+0x150>
    4708:	0ac5f163          	bgeu	a1,a2,47aa <__umoddi3+0xb0>
    470c:	6741                	lui	a4,0x10
    470e:	1ae67863          	bgeu	a2,a4,48be <__umoddi3+0x1c4>
    4712:	0ff00713          	li	a4,255
    4716:	86b2                	mv	a3,a2
    4718:	00c77563          	bgeu	a4,a2,4722 <__umoddi3+0x28>
    471c:	00865693          	srli	a3,a2,0x8
    4720:	47a1                	li	a5,8
    4722:	00001717          	auipc	a4,0x1
    4726:	9ae70713          	addi	a4,a4,-1618 # 50d0 <__clz_tab>
    472a:	9736                	add	a4,a4,a3
    472c:	00074703          	lbu	a4,0(a4)
    4730:	02000893          	li	a7,32
    4734:	97ba                	add	a5,a5,a4
    4736:	40f888b3          	sub	a7,a7,a5
    473a:	00088c63          	beqz	a7,4752 <__umoddi3+0x58>
    473e:	011595b3          	sll	a1,a1,a7
    4742:	00f557b3          	srl	a5,a0,a5
    4746:	01161833          	sll	a6,a2,a7
    474a:	00b7ee33          	or	t3,a5,a1
    474e:	01151333          	sll	t1,a0,a7
    4752:	01085613          	srli	a2,a6,0x10
    4756:	02ce57b3          	divu	a5,t3,a2
    475a:	01081513          	slli	a0,a6,0x10
    475e:	8141                	srli	a0,a0,0x10
    4760:	01035693          	srli	a3,t1,0x10
    4764:	02ce7e33          	remu	t3,t3,a2
    4768:	02f507b3          	mul	a5,a0,a5
    476c:	0e42                	slli	t3,t3,0x10
    476e:	00de6733          	or	a4,t3,a3
    4772:	00f77863          	bgeu	a4,a5,4782 <__umoddi3+0x88>
    4776:	9742                	add	a4,a4,a6
    4778:	01076563          	bltu	a4,a6,4782 <__umoddi3+0x88>
    477c:	00f77363          	bgeu	a4,a5,4782 <__umoddi3+0x88>
    4780:	9742                	add	a4,a4,a6
    4782:	8f1d                	sub	a4,a4,a5
    4784:	02c756b3          	divu	a3,a4,a2
    4788:	01031793          	slli	a5,t1,0x10
    478c:	83c1                	srli	a5,a5,0x10
    478e:	02c77733          	remu	a4,a4,a2
    4792:	02d50533          	mul	a0,a0,a3
    4796:	0742                	slli	a4,a4,0x10
    4798:	8fd9                	or	a5,a5,a4
    479a:	08a7ec63          	bltu	a5,a0,4832 <__umoddi3+0x138>
    479e:	40a78533          	sub	a0,a5,a0
    47a2:	01155533          	srl	a0,a0,a7
    47a6:	4581                	li	a1,0
    47a8:	8082                	ret
    47aa:	e601                	bnez	a2,47b2 <__umoddi3+0xb8>
    47ac:	4705                	li	a4,1
    47ae:	02c75833          	divu	a6,a4,a2
    47b2:	6741                	lui	a4,0x10
    47b4:	0ee86c63          	bltu	a6,a4,48ac <__umoddi3+0x1b2>
    47b8:	010007b7          	lui	a5,0x1000
    47bc:	2af86563          	bltu	a6,a5,4a66 <__umoddi3+0x36c>
    47c0:	01885693          	srli	a3,a6,0x18
    47c4:	47e1                	li	a5,24
    47c6:	00001717          	auipc	a4,0x1
    47ca:	90a70713          	addi	a4,a4,-1782 # 50d0 <__clz_tab>
    47ce:	9736                	add	a4,a4,a3
    47d0:	00074703          	lbu	a4,0(a4)
    47d4:	02000893          	li	a7,32
    47d8:	97ba                	add	a5,a5,a4
    47da:	40f888b3          	sub	a7,a7,a5
    47de:	1e089a63          	bnez	a7,49d2 <__umoddi3+0x2d8>
    47e2:	01081e13          	slli	t3,a6,0x10
    47e6:	410585b3          	sub	a1,a1,a6
    47ea:	01085613          	srli	a2,a6,0x10
    47ee:	010e5e13          	srli	t3,t3,0x10
    47f2:	01035713          	srli	a4,t1,0x10
    47f6:	02c5d6b3          	divu	a3,a1,a2
    47fa:	02c5f5b3          	remu	a1,a1,a2
    47fe:	03c686b3          	mul	a3,a3,t3
    4802:	05c2                	slli	a1,a1,0x10
    4804:	8f4d                	or	a4,a4,a1
    4806:	00d77763          	bgeu	a4,a3,4814 <__umoddi3+0x11a>
    480a:	9742                	add	a4,a4,a6
    480c:	01076463          	bltu	a4,a6,4814 <__umoddi3+0x11a>
    4810:	26d76a63          	bltu	a4,a3,4a84 <__umoddi3+0x38a>
    4814:	8f15                	sub	a4,a4,a3
    4816:	02c75533          	divu	a0,a4,a2
    481a:	0342                	slli	t1,t1,0x10
    481c:	01035313          	srli	t1,t1,0x10
    4820:	02c77733          	remu	a4,a4,a2
    4824:	03c50533          	mul	a0,a0,t3
    4828:	0742                	slli	a4,a4,0x10
    482a:	006767b3          	or	a5,a4,t1
    482e:	00a7f863          	bgeu	a5,a0,483e <__umoddi3+0x144>
    4832:	97c2                	add	a5,a5,a6
    4834:	0107e563          	bltu	a5,a6,483e <__umoddi3+0x144>
    4838:	00a7f363          	bgeu	a5,a0,483e <__umoddi3+0x144>
    483c:	97c2                	add	a5,a5,a6
    483e:	40a78533          	sub	a0,a5,a0
    4842:	01155533          	srl	a0,a0,a7
    4846:	4581                	li	a1,0
    4848:	8082                	ret
    484a:	882a                	mv	a6,a0
    484c:	f4d5eee3          	bltu	a1,a3,47a8 <__umoddi3+0xae>
    4850:	67c1                	lui	a5,0x10
    4852:	04f6e563          	bltu	a3,a5,489c <__umoddi3+0x1a2>
    4856:	010007b7          	lui	a5,0x1000
    485a:	20f6e263          	bltu	a3,a5,4a5e <__umoddi3+0x364>
    485e:	0186d313          	srli	t1,a3,0x18
    4862:	48e1                	li	a7,24
    4864:	00001797          	auipc	a5,0x1
    4868:	86c78793          	addi	a5,a5,-1940 # 50d0 <__clz_tab>
    486c:	979a                	add	a5,a5,t1
    486e:	0007ce03          	lbu	t3,0(a5)
    4872:	02000313          	li	t1,32
    4876:	9e46                	add	t3,t3,a7
    4878:	41c30333          	sub	t1,t1,t3
    487c:	04031963          	bnez	t1,48ce <__umoddi3+0x1d4>
    4880:	00b6e463          	bltu	a3,a1,4888 <__umoddi3+0x18e>
    4884:	00c56963          	bltu	a0,a2,4896 <__umoddi3+0x19c>
    4888:	40c50833          	sub	a6,a0,a2
    488c:	8d95                	sub	a1,a1,a3
    488e:	01053733          	sltu	a4,a0,a6
    4892:	40e58733          	sub	a4,a1,a4
    4896:	8542                	mv	a0,a6
    4898:	85ba                	mv	a1,a4
    489a:	8082                	ret
    489c:	0ff00793          	li	a5,255
    48a0:	1cd7fb63          	bgeu	a5,a3,4a76 <__umoddi3+0x37c>
    48a4:	0086d313          	srli	t1,a3,0x8
    48a8:	48a1                	li	a7,8
    48aa:	bf6d                	j	4864 <__umoddi3+0x16a>
    48ac:	0ff00713          	li	a4,255
    48b0:	86c2                	mv	a3,a6
    48b2:	f1077ae3          	bgeu	a4,a6,47c6 <__umoddi3+0xcc>
    48b6:	00885693          	srli	a3,a6,0x8
    48ba:	47a1                	li	a5,8
    48bc:	b729                	j	47c6 <__umoddi3+0xcc>
    48be:	010007b7          	lui	a5,0x1000
    48c2:	1af66663          	bltu	a2,a5,4a6e <__umoddi3+0x374>
    48c6:	01865693          	srli	a3,a2,0x18
    48ca:	47e1                	li	a5,24
    48cc:	bd99                	j	4722 <__umoddi3+0x28>
    48ce:	01c657b3          	srl	a5,a2,t3
    48d2:	006696b3          	sll	a3,a3,t1
    48d6:	8edd                	or	a3,a3,a5
    48d8:	01c5d8b3          	srl	a7,a1,t3
    48dc:	0106d713          	srli	a4,a3,0x10
    48e0:	02e8deb3          	divu	t4,a7,a4
    48e4:	01069f13          	slli	t5,a3,0x10
    48e8:	01c557b3          	srl	a5,a0,t3
    48ec:	010f5f13          	srli	t5,t5,0x10
    48f0:	006595b3          	sll	a1,a1,t1
    48f4:	8ddd                	or	a1,a1,a5
    48f6:	0105d813          	srli	a6,a1,0x10
    48fa:	00661633          	sll	a2,a2,t1
    48fe:	00651533          	sll	a0,a0,t1
    4902:	02e8f8b3          	remu	a7,a7,a4
    4906:	03df07b3          	mul	a5,t5,t4
    490a:	08c2                	slli	a7,a7,0x10
    490c:	0108e833          	or	a6,a7,a6
    4910:	00f87b63          	bgeu	a6,a5,4926 <__umoddi3+0x22c>
    4914:	9836                	add	a6,a6,a3
    4916:	fffe8893          	addi	a7,t4,-1
    491a:	16d86363          	bltu	a6,a3,4a80 <__umoddi3+0x386>
    491e:	16f87163          	bgeu	a6,a5,4a80 <__umoddi3+0x386>
    4922:	1ef9                	addi	t4,t4,-2
    4924:	9836                	add	a6,a6,a3
    4926:	40f80833          	sub	a6,a6,a5
    492a:	02e857b3          	divu	a5,a6,a4
    492e:	05c2                	slli	a1,a1,0x10
    4930:	81c1                	srli	a1,a1,0x10
    4932:	02e87833          	remu	a6,a6,a4
    4936:	02ff0f33          	mul	t5,t5,a5
    493a:	01081713          	slli	a4,a6,0x10
    493e:	8f4d                	or	a4,a4,a1
    4940:	01e77b63          	bgeu	a4,t5,4956 <__umoddi3+0x25c>
    4944:	9736                	add	a4,a4,a3
    4946:	fff78593          	addi	a1,a5,-1 # ffffff <_data_lma+0xffae2f>
    494a:	12d76963          	bltu	a4,a3,4a7c <__umoddi3+0x382>
    494e:	13e77763          	bgeu	a4,t5,4a7c <__umoddi3+0x382>
    4952:	17f9                	addi	a5,a5,-2
    4954:	9736                	add	a4,a4,a3
    4956:	0ec2                	slli	t4,t4,0x10
    4958:	62c1                	lui	t0,0x10
    495a:	00feeeb3          	or	t4,t4,a5
    495e:	fff28813          	addi	a6,t0,-1 # ffff <_data_lma+0xae2f>
    4962:	010ef8b3          	and	a7,t4,a6
    4966:	01065593          	srli	a1,a2,0x10
    496a:	010ede93          	srli	t4,t4,0x10
    496e:	01067833          	and	a6,a2,a6
    4972:	03088fb3          	mul	t6,a7,a6
    4976:	41e70733          	sub	a4,a4,t5
    497a:	030e8833          	mul	a6,t4,a6
    497e:	010fd793          	srli	a5,t6,0x10
    4982:	02b888b3          	mul	a7,a7,a1
    4986:	98c2                	add	a7,a7,a6
    4988:	97c6                	add	a5,a5,a7
    498a:	02be8eb3          	mul	t4,t4,a1
    498e:	0107f363          	bgeu	a5,a6,4994 <__umoddi3+0x29a>
    4992:	9e96                	add	t4,t4,t0
    4994:	6841                	lui	a6,0x10
    4996:	187d                	addi	a6,a6,-1
    4998:	0107d593          	srli	a1,a5,0x10
    499c:	0107f7b3          	and	a5,a5,a6
    49a0:	07c2                	slli	a5,a5,0x10
    49a2:	010fffb3          	and	t6,t6,a6
    49a6:	95f6                	add	a1,a1,t4
    49a8:	97fe                	add	a5,a5,t6
    49aa:	0ab76263          	bltu	a4,a1,4a4e <__umoddi3+0x354>
    49ae:	08b70e63          	beq	a4,a1,4a4a <__umoddi3+0x350>
    49b2:	40f507b3          	sub	a5,a0,a5
    49b6:	00f53533          	sltu	a0,a0,a5
    49ba:	40b705b3          	sub	a1,a4,a1
    49be:	8d89                	sub	a1,a1,a0
    49c0:	01c59e33          	sll	t3,a1,t3
    49c4:	0067d533          	srl	a0,a5,t1
    49c8:	00ae6533          	or	a0,t3,a0
    49cc:	0065d5b3          	srl	a1,a1,t1
    49d0:	8082                	ret
    49d2:	01181833          	sll	a6,a6,a7
    49d6:	00f5d733          	srl	a4,a1,a5
    49da:	01085613          	srli	a2,a6,0x10
    49de:	02c756b3          	divu	a3,a4,a2
    49e2:	01081e13          	slli	t3,a6,0x10
    49e6:	00f557b3          	srl	a5,a0,a5
    49ea:	010e5e13          	srli	t3,t3,0x10
    49ee:	011595b3          	sll	a1,a1,a7
    49f2:	8ddd                	or	a1,a1,a5
    49f4:	0105de93          	srli	t4,a1,0x10
    49f8:	01151333          	sll	t1,a0,a7
    49fc:	02c77733          	remu	a4,a4,a2
    4a00:	02de07b3          	mul	a5,t3,a3
    4a04:	01071693          	slli	a3,a4,0x10
    4a08:	01d6e6b3          	or	a3,a3,t4
    4a0c:	00f6f863          	bgeu	a3,a5,4a1c <__umoddi3+0x322>
    4a10:	96c2                	add	a3,a3,a6
    4a12:	0106e563          	bltu	a3,a6,4a1c <__umoddi3+0x322>
    4a16:	00f6f363          	bgeu	a3,a5,4a1c <__umoddi3+0x322>
    4a1a:	96c2                	add	a3,a3,a6
    4a1c:	8e9d                	sub	a3,a3,a5
    4a1e:	02c6d733          	divu	a4,a3,a2
    4a22:	01059793          	slli	a5,a1,0x10
    4a26:	83c1                	srli	a5,a5,0x10
    4a28:	02c6f6b3          	remu	a3,a3,a2
    4a2c:	02ee0733          	mul	a4,t3,a4
    4a30:	01069593          	slli	a1,a3,0x10
    4a34:	8ddd                	or	a1,a1,a5
    4a36:	00e5f863          	bgeu	a1,a4,4a46 <__umoddi3+0x34c>
    4a3a:	95c2                	add	a1,a1,a6
    4a3c:	0105e563          	bltu	a1,a6,4a46 <__umoddi3+0x34c>
    4a40:	00e5f363          	bgeu	a1,a4,4a46 <__umoddi3+0x34c>
    4a44:	95c2                	add	a1,a1,a6
    4a46:	8d99                	sub	a1,a1,a4
    4a48:	b36d                	j	47f2 <__umoddi3+0xf8>
    4a4a:	f6f574e3          	bgeu	a0,a5,49b2 <__umoddi3+0x2b8>
    4a4e:	40c78633          	sub	a2,a5,a2
    4a52:	00c7b7b3          	sltu	a5,a5,a2
    4a56:	97b6                	add	a5,a5,a3
    4a58:	8d9d                	sub	a1,a1,a5
    4a5a:	87b2                	mv	a5,a2
    4a5c:	bf99                	j	49b2 <__umoddi3+0x2b8>
    4a5e:	0106d313          	srli	t1,a3,0x10
    4a62:	48c1                	li	a7,16
    4a64:	b501                	j	4864 <__umoddi3+0x16a>
    4a66:	01085693          	srli	a3,a6,0x10
    4a6a:	47c1                	li	a5,16
    4a6c:	bba9                	j	47c6 <__umoddi3+0xcc>
    4a6e:	01065693          	srli	a3,a2,0x10
    4a72:	47c1                	li	a5,16
    4a74:	b17d                	j	4722 <__umoddi3+0x28>
    4a76:	8336                	mv	t1,a3
    4a78:	4881                	li	a7,0
    4a7a:	b3ed                	j	4864 <__umoddi3+0x16a>
    4a7c:	87ae                	mv	a5,a1
    4a7e:	bde1                	j	4956 <__umoddi3+0x25c>
    4a80:	8ec6                	mv	t4,a7
    4a82:	b555                	j	4926 <__umoddi3+0x22c>
    4a84:	9742                	add	a4,a4,a6
    4a86:	b379                	j	4814 <__umoddi3+0x11a>

00004a88 <memcpy>:
    4a88:	00a5c7b3          	xor	a5,a1,a0
    4a8c:	8b8d                	andi	a5,a5,3
    4a8e:	00c50733          	add	a4,a0,a2
    4a92:	e781                	bnez	a5,4a9a <memcpy+0x12>
    4a94:	478d                	li	a5,3
    4a96:	00c7ee63          	bltu	a5,a2,4ab2 <memcpy+0x2a>
    4a9a:	87aa                	mv	a5,a0
    4a9c:	0ae57063          	bgeu	a0,a4,4b3c <memcpy+0xb4>
    4aa0:	0005c683          	lbu	a3,0(a1)
    4aa4:	0785                	addi	a5,a5,1
    4aa6:	0585                	addi	a1,a1,1
    4aa8:	fed78fa3          	sb	a3,-1(a5)
    4aac:	fee7eae3          	bltu	a5,a4,4aa0 <memcpy+0x18>
    4ab0:	8082                	ret
    4ab2:	00357693          	andi	a3,a0,3
    4ab6:	87aa                	mv	a5,a0
    4ab8:	ca91                	beqz	a3,4acc <memcpy+0x44>
    4aba:	0005c683          	lbu	a3,0(a1)
    4abe:	0785                	addi	a5,a5,1
    4ac0:	0585                	addi	a1,a1,1
    4ac2:	fed78fa3          	sb	a3,-1(a5)
    4ac6:	0037f693          	andi	a3,a5,3
    4aca:	b7fd                	j	4ab8 <memcpy+0x30>
    4acc:	ffc77693          	andi	a3,a4,-4
    4ad0:	fe068613          	addi	a2,a3,-32
    4ad4:	06c7f063          	bgeu	a5,a2,4b34 <memcpy+0xac>
    4ad8:	0005a383          	lw	t2,0(a1)
    4adc:	0045a283          	lw	t0,4(a1)
    4ae0:	0085af83          	lw	t6,8(a1)
    4ae4:	00c5af03          	lw	t5,12(a1)
    4ae8:	0105ae83          	lw	t4,16(a1)
    4aec:	0145ae03          	lw	t3,20(a1)
    4af0:	0185a303          	lw	t1,24(a1)
    4af4:	01c5a883          	lw	a7,28(a1)
    4af8:	02458593          	addi	a1,a1,36
    4afc:	0077a023          	sw	t2,0(a5)
    4b00:	ffc5a803          	lw	a6,-4(a1)
    4b04:	0057a223          	sw	t0,4(a5)
    4b08:	01f7a423          	sw	t6,8(a5)
    4b0c:	01e7a623          	sw	t5,12(a5)
    4b10:	01d7a823          	sw	t4,16(a5)
    4b14:	01c7aa23          	sw	t3,20(a5)
    4b18:	0067ac23          	sw	t1,24(a5)
    4b1c:	0117ae23          	sw	a7,28(a5)
    4b20:	02478793          	addi	a5,a5,36
    4b24:	ff07ae23          	sw	a6,-4(a5)
    4b28:	b775                	j	4ad4 <memcpy+0x4c>
    4b2a:	4190                	lw	a2,0(a1)
    4b2c:	0791                	addi	a5,a5,4
    4b2e:	0591                	addi	a1,a1,4
    4b30:	fec7ae23          	sw	a2,-4(a5)
    4b34:	fed7ebe3          	bltu	a5,a3,4b2a <memcpy+0xa2>
    4b38:	f6e7e4e3          	bltu	a5,a4,4aa0 <memcpy+0x18>
    4b3c:	8082                	ret

00004b3e <strlen>:
    4b3e:	87aa                	mv	a5,a0
    4b40:	0785                	addi	a5,a5,1
    4b42:	fff7c703          	lbu	a4,-1(a5)
    4b46:	ff6d                	bnez	a4,4b40 <strlen+0x2>
    4b48:	40a78533          	sub	a0,a5,a0
    4b4c:	157d                	addi	a0,a0,-1
    4b4e:	8082                	ret
    4b50:	0666                	slli	a2,a2,0x19
    4b52:	0000                	unimp
    4b54:	0686                	slli	a3,a3,0x1
    4b56:	0000                	unimp
    4b58:	0698                	addi	a4,sp,832
    4b5a:	0000                	unimp
    4b5c:	06a2                	slli	a3,a3,0x8
    4b5e:	0000                	unimp
    4b60:	066a                	slli	a2,a2,0x1a
    4b62:	0000                	unimp
    4b64:	066a                	slli	a2,a2,0x1a
    4b66:	0000                	unimp
    4b68:	066a                	slli	a2,a2,0x1a
    4b6a:	0000                	unimp
    4b6c:	066a                	slli	a2,a2,0x1a
    4b6e:	0000                	unimp
    4b70:	066a                	slli	a2,a2,0x1a
    4b72:	0000                	unimp
    4b74:	066a                	slli	a2,a2,0x1a
    4b76:	0000                	unimp
    4b78:	066a                	slli	a2,a2,0x1a
    4b7a:	0000                	unimp
    4b7c:	066a                	slli	a2,a2,0x1a
    4b7e:	0000                	unimp
    4b80:	066a                	slli	a2,a2,0x1a
    4b82:	0000                	unimp
    4b84:	066a                	slli	a2,a2,0x1a
    4b86:	0000                	unimp
    4b88:	066a                	slli	a2,a2,0x1a
    4b8a:	0000                	unimp
    4b8c:	06a6                	slli	a3,a3,0x9
    4b8e:	0000                	unimp
    4b90:	07c2                	slli	a5,a5,0x10
    4b92:	0000                	unimp
    4b94:	07e2                	slli	a5,a5,0x18
    4b96:	0000                	unimp
    4b98:	07f4                	addi	a3,sp,972
    4b9a:	0000                	unimp
    4b9c:	07fe                	slli	a5,a5,0x1f
    4b9e:	0000                	unimp
    4ba0:	07c6                	slli	a5,a5,0x11
    4ba2:	0000                	unimp
    4ba4:	07c6                	slli	a5,a5,0x11
    4ba6:	0000                	unimp
    4ba8:	07c6                	slli	a5,a5,0x11
    4baa:	0000                	unimp
    4bac:	07c6                	slli	a5,a5,0x11
    4bae:	0000                	unimp
    4bb0:	07c6                	slli	a5,a5,0x11
    4bb2:	0000                	unimp
    4bb4:	07c6                	slli	a5,a5,0x11
    4bb6:	0000                	unimp
    4bb8:	07c6                	slli	a5,a5,0x11
    4bba:	0000                	unimp
    4bbc:	07c6                	slli	a5,a5,0x11
    4bbe:	0000                	unimp
    4bc0:	07c6                	slli	a5,a5,0x11
    4bc2:	0000                	unimp
    4bc4:	07c6                	slli	a5,a5,0x11
    4bc6:	0000                	unimp
    4bc8:	07c6                	slli	a5,a5,0x11
    4bca:	0000                	unimp
    4bcc:	0802                	c.slli64	a6
    4bce:	0000                	unimp
    4bd0:	72617453          	0x72617453
    4bd4:	2074                	fld	fa3,192(s0)
    4bd6:	6f42                	flw	ft10,16(sp)
    4bd8:	6f4c746f          	jal	s0,cc2cc <_data_lma+0xc70fc>
    4bdc:	6461                	lui	s0,0x18
    4bde:	7265                	lui	tp,0xffff9
    4be0:	0d20                	addi	s0,sp,664
    4be2:	000a                	c.slli	zero,0x2
    4be4:	74666f53          	0x74666f53
    4be8:	565f 7265 6973      	0x69737265565f
    4bee:	3a206e6f          	jal	t3,af90 <_data_lma+0x5dc0>
    4bf2:	2520                	fld	fs0,72(a0)
    4bf4:	2078                	fld	fa4,192(s0)
    4bf6:	0a0d                	addi	s4,s4,3
    4bf8:	0000                	unimp
    4bfa:	0000                	unimp
    4bfc:	6c46                	flw	fs8,80(sp)
    4bfe:	7361                	lui	t1,0xffff8
    4c00:	2d68                	fld	fa0,216(a0)
    4c02:	6574                	flw	fa3,76(a0)
    4c04:	203a7473          	csrrci	s0,hideleg,20
    4c08:	656c                	flw	fa1,76(a0)
    4c0a:	676e                	flw	fa4,216(sp)
    4c0c:	7468                	flw	fa0,108(s0)
    4c0e:	3a20                	fld	fs0,112(a2)
    4c10:	6425                	lui	s0,0x9
    4c12:	2020                	fld	fs0,64(s0)
    4c14:	0a0d                	addi	s4,s4,3
    4c16:	0000                	unimp
    4c18:	6c46                	flw	fs8,80(sp)
    4c1a:	7361                	lui	t1,0xffff8
    4c1c:	2d68                	fld	fa0,216(a0)
    4c1e:	6574                	flw	fa3,76(a0)
    4c20:	203a7473          	csrrci	s0,hideleg,20
    4c24:	6461                	lui	s0,0x18
    4c26:	7264                	flw	fs1,100(a2)
    4c28:	3a20                	fld	fs0,112(a2)
    4c2a:	7825                	lui	a6,0xfffe9
    4c2c:	2d20                	fld	fs0,88(a0)
    4c2e:	202d                	jal	4c58 <strlen+0x11a>
    4c30:	6164                	flw	fs1,68(a0)
    4c32:	6174                	flw	fa3,68(a0)
    4c34:	3a20                	fld	fs0,112(a2)
    4c36:	7825                	lui	a6,0xfffe9
    4c38:	0d20                	addi	s0,sp,664
    4c3a:	000a                	c.slli	zero,0x2
    4c3c:	754a                	flw	fa0,176(sp)
    4c3e:	706d                	c.lui	zero,0xffffb
    4c40:	7420                	flw	fs0,104(s0)
    4c42:	5041206f          	j	17146 <_data_lma+0x11f76>
    4c46:	2050                	fld	fa2,128(s0)
    4c48:	0a0d                	addi	s4,s4,3
    4c4a:	0a0d                	addi	s4,s4,3
    4c4c:	0000                	unimp
    4c4e:	0000                	unimp
    4c50:	0d206f67          	0xd206f67
    4c54:	0000                	unimp
    4c56:	0000                	unimp
    4c58:	6552                	flw	fa0,20(sp)
    4c5a:	20746573          	csrrsi	a0,0x207,8
    4c5e:	0d21                	addi	s10,s10,8
    4c60:	200a                	fld	ft0,128(sp)
    4c62:	0a0d                	addi	s4,s4,3
    4c64:	0a0d                	addi	s4,s4,3
    4c66:	0000                	unimp
    4c68:	6954                	flw	fa3,20(a0)
    4c6a:	656d                	lui	a0,0x1b
    4c6c:	203a                	fld	ft0,392(sp)
    4c6e:	3225                	jal	4596 <__udivdi3+0x234>
    4c70:	3a64                	fld	fs1,240(a2)
    4c72:	3225                	jal	459a <__udivdi3+0x238>
    4c74:	3a64                	fld	fs1,240(a2)
    4c76:	3225                	jal	459e <__udivdi3+0x23c>
    4c78:	2064                	fld	fs1,192(s0)
    4c7a:	0a0d                	addi	s4,s4,3
    4c7c:	0000                	unimp
    4c7e:	0000                	unimp
    4c80:	6e69                	lui	t3,0x1a
    4c82:	3120                	fld	fs0,96(a0)
    4c84:	0020                	addi	s0,sp,8
    4c86:	0000                	unimp
    4c88:	6e69                	lui	t3,0x1a
    4c8a:	3220                	fld	fs0,96(a2)
    4c8c:	0d20                	addi	s0,sp,664
    4c8e:	000a                	c.slli	zero,0x2
    4c90:	3e3e                	fld	ft8,488(sp)
    4c92:	2d2d                	jal	52cc <_data_lma+0xfc>
    4c94:	2d2d                	jal	52ce <_data_lma+0xfe>
    4c96:	6564                	flw	fs1,76(a0)
    4c98:	7562                	flw	fa0,56(sp)
    4c9a:	64252067          	0x64252067
    4c9e:	2d2d                	jal	52d8 <_data_lma+0x108>
    4ca0:	2d2d                	jal	52da <_data_lma+0x10a>
    4ca2:	3c3c                	fld	fa5,120(s0)
    4ca4:	0a0d                	addi	s4,s4,3
    4ca6:	0000                	unimp
    4ca8:	6156                	flw	ft2,84(sp)
    4caa:	696c                	flw	fa1,84(a0)
    4cac:	6164                	flw	fs1,68(a0)
    4cae:	6974                	flw	fa3,84(a0)
    4cb0:	66206e6f          	jal	t3,b312 <_data_lma+0x6142>
    4cb4:	6961                	lui	s2,0x18
    4cb6:	736c                	flw	fa1,100(a4)
    4cb8:	2120                	fld	fs0,64(a0)
    4cba:	0a0d                	addi	s4,s4,3
    4cbc:	0000                	unimp
    4cbe:	0000                	unimp
    4cc0:	63656843          	fmadd.d	fa6,fa0,fs6,fa2,unknown
    4cc4:	253a206b          	0x253a206b
    4cc8:	2078                	fld	fa4,192(s0)
    4cca:	0d20                	addi	s0,sp,664
    4ccc:	200a                	fld	ft0,128(sp)
    4cce:	0d20                	addi	s0,sp,664
    4cd0:	000a                	c.slli	zero,0x2
    4cd2:	0000                	unimp
    4cd4:	6156                	flw	ft2,84(sp)
    4cd6:	696c                	flw	fa1,84(a0)
    4cd8:	6164                	flw	fs1,68(a0)
    4cda:	6974                	flw	fa3,84(a0)
    4cdc:	69206e6f          	jal	t3,b36e <_data_lma+0x619e>
    4ce0:	75732073          	csrs	0x757,t1
    4ce4:	73656363          	bltu	a0,s6,540a <_data_lma+0x23a>
    4ce8:	6c756673          	csrrsi	a2,0x6c7,10
    4cec:	2120                	fld	fs0,64(a0)
    4cee:	0a0d                	addi	s4,s4,3
    4cf0:	0000                	unimp
    4cf2:	0000                	unimp
    4cf4:	6425                	lui	s0,0x9
    4cf6:	3a20                	fld	fs0,112(a2)
    4cf8:	7825                	lui	a6,0xfffe9
    4cfa:	2020                	fld	fs0,64(s0)
    4cfc:	0a0d                	addi	s4,s4,3
    4cfe:	0000                	unimp
    4d00:	3e2d                	jal	483a <__umoddi3+0x140>
    4d02:	2020                	fld	fs0,64(s0)
    4d04:	6425                	lui	s0,0x9
    4d06:	3a20                	fld	fs0,112(a2)
    4d08:	7825                	lui	a6,0xfffe9
    4d0a:	2020                	fld	fs0,64(s0)
    4d0c:	2d3c                	fld	fa5,88(a0)
    4d0e:	0d20                	addi	s0,sp,664
    4d10:	000a                	c.slli	zero,0x2
    4d12:	0000                	unimp
    4d14:	6e45                	lui	t3,0x11
    4d16:	2064                	fld	fs1,192(s0)
    4d18:	253a                	fld	fa0,392(sp)
    4d1a:	2078                	fld	fa4,192(s0)
    4d1c:	0d20                	addi	s0,sp,664
    4d1e:	200a                	fld	ft0,128(sp)
    4d20:	0a0d                	addi	s4,s4,3
    4d22:	0000                	unimp
    4d24:	3e3e                	fld	ft8,488(sp)
    4d26:	2d2d                	jal	5360 <_data_lma+0x190>
    4d28:	4320                	lw	s0,64(a4)
    4d2a:	72746e6f          	jal	t3,4bc50 <_data_lma+0x46a80>
    4d2e:	2d206c6f          	jal	s8,b000 <_data_lma+0x5e30>
    4d32:	3c2d                	jal	476c <__umoddi3+0x72>
    4d34:	0d3c                	addi	a5,sp,664
    4d36:	000a                	c.slli	zero,0x2
    4d38:	6f4d                	lui	t5,0x13
    4d3a:	6564                	flw	fs1,76(a0)
    4d3c:	206c                	fld	fa1,192(s0)
    4d3e:	253a                	fld	fa0,392(sp)
    4d40:	2078                	fld	fa4,192(s0)
    4d42:	0a0d                	addi	s4,s4,3
    4d44:	0000                	unimp
    4d46:	0000                	unimp
    4d48:	6556                	flw	fa0,84(sp)
    4d4a:	7372                	flw	ft6,60(sp)
    4d4c:	6f69                	lui	t5,0x1a
    4d4e:	206e                	fld	ft0,216(sp)
    4d50:	253a                	fld	fa0,392(sp)
    4d52:	2064                	fld	fs1,192(s0)
    4d54:	0a0d                	addi	s4,s4,3
    4d56:	0000                	unimp
    4d58:	5352                	lw	t1,52(sp)
    4d5a:	3834                	fld	fa3,112(s0)
    4d5c:	2035                	jal	4d88 <strlen+0x24a>
    4d5e:	253a                	fld	fa0,392(sp)
    4d60:	2078                	fld	fa4,192(s0)
    4d62:	0d20                	addi	s0,sp,664
    4d64:	000a                	c.slli	zero,0x2
    4d66:	0000                	unimp
    4d68:	5f4d                	li	t5,-13
    4d6a:	535f726f          	jal	tp,fca9e <_data_lma+0xf78ce>
    4d6e:	3a20                	fld	fs0,112(a2)
    4d70:	7825                	lui	a6,0xfffe9
    4d72:	0d20                	addi	s0,sp,664
    4d74:	000a                	c.slli	zero,0x2
    4d76:	0000                	unimp
    4d78:	73616c43          	fmadd.d	fs8,ft2,fs6,fa4,unknown
    4d7c:	253a2073          	csrs	0x253,s4
    4d80:	2078                	fld	fa4,192(s0)
    4d82:	0a0d                	addi	s4,s4,3
    4d84:	0000                	unimp
    4d86:	0000                	unimp
    4d88:	494d                	li	s2,19
    4d8a:	2044                	fld	fs1,128(s0)
    4d8c:	253a                	fld	fa0,392(sp)
    4d8e:	2078                	fld	fa4,192(s0)
    4d90:	0a0d                	addi	s4,s4,3
    4d92:	0000                	unimp
    4d94:	6e69                	lui	t3,0x1a
    4d96:	3320                	fld	fs0,96(a4)
    4d98:	0d20                	addi	s0,sp,664
    4d9a:	000a                	c.slli	zero,0x2
    4d9c:	6e69                	lui	t3,0x1a
    4d9e:	7820                	flw	fs0,112(s0)
    4da0:	6f20                	flw	fs0,88(a4)
    4da2:	6874                	flw	fa3,84(s0)
    4da4:	7265                	lui	tp,0xffff9
    4da6:	0000                	unimp
    4da8:	6e69                	lui	t3,0x1a
    4daa:	6520                	flw	fs0,72(a0)
    4dac:	646e                	flw	fs0,216(sp)
    4dae:	6f20                	flw	fs0,88(a4)
    4db0:	6576                	flw	fa0,92(sp)
    4db2:	0d72                	slli	s10,s10,0x1c
    4db4:	000a                	c.slli	zero,0x2
	...

00004db8 <USBD_ConfigDescriptor>:
    4db8:	0209 0042 0102 a004 0964 0004 0100 0103     ..B.....d.......
    4dc8:	0001 2109 0111 0121 3e22 0700 8105 4003     ...!..!.">.....@
    4dd8:	0500 0409 0001 0302 0201 0900 1021 0001     ............!...
    4de8:	2201 0022 0507 0382 0040 0701 0205 4003     ."".....@......@
    4df8:	0100 0000                                   ....

00004dfc <USBD_DeviceDescriptor>:
    4dfc:	0112 0110 0000 4000 03eb 2421 0100 0201     .......@..!$....
    4e0c:	0100 0000                                   ....

00004e10 <USBD_HIDRepDesc>:
    4e10:	0006 09ff a101 0901 1502 2600 ff00 0875     ...........&..u.
    4e20:	4095 0681 0209 0015 0026 75ff 9508 9140     .@......&..u..@.
    4e30:	c006 0000                                   ....

00004e34 <USBD_KeyRepDesc>:
    4e34:	0105 0609 01a1 0705 e019 e729 0015 0125     ..........)...%.
    4e44:	0175 0895 0281 0195 0875 0181 0395 0175     u.......u.....u.
    4e54:	0805 0119 0329 0291 0595 0175 0191 0695     ....).....u.....
    4e64:	0875 ff26 0500 1907 2900 8191 c000 0000     u.&......)......

00004e74 <USBD_StringProduct>:
    4e74:	031a 0048 0049 0044 002d 004b 0065 0079     ..H.I.D.-.K.e.y.
    4e84:	0062 006f 0061 0072 0064 0000               b.o.a.r.d...

00004e90 <USBD_StringVendor>:
    4e90:	030a 0047 0058 0057 004c 0000 3428 0000     ..G.X.W.L...(4..
    4ea0:	343c 0000 3452 0000 3460 0000 3480 0000     <4..R4..`4...4..
    4eb0:	34a6 0000 5331 0d20 0000 0000               .4..1S .....

00004ebc <CSWTCH.3>:
    4ebc:	3800 4001 4400 4000 4800 4000               .8.@.D.@.H.@

00004ec8 <CRC_CCITT_table>:
    4ec8:	0000 1021 2042 3063 4084 50a5 60c6 70e7     ..!.B c0.@.P.`.p
    4ed8:	8108 9129 a14a b16b c18c d1ad e1ce f1ef     ..).J.k.........
    4ee8:	1231 0210 3273 2252 52b5 4294 72f7 62d6     1...s2R".R.B.r.b
    4ef8:	9339 8318 b37b a35a d3bd c39c f3ff e3de     9...{.Z.........
    4f08:	2462 3443 0420 1401 64e6 74c7 44a4 5485     b$C4 ....d.t.D.T
    4f18:	a56a b54b 8528 9509 e5ee f5cf c5ac d58d     j.K.(...........
    4f28:	3653 2672 1611 0630 76d7 66f6 5695 46b4     S6r&..0..v.f.V.F
    4f38:	b75b a77a 9719 8738 f7df e7fe d79d c7bc     [.z...8.........
    4f48:	48c4 58e5 6886 78a7 0840 1861 2802 3823     .H.X.h.x@.a..(#8
    4f58:	c9cc d9ed e98e f9af 8948 9969 a90a b92b     ........H.i...+.
    4f68:	5af5 4ad4 7ab7 6a96 1a71 0a50 3a33 2a12     .Z.J.z.jq.P.3:.*
    4f78:	dbfd cbdc fbbf eb9e 9b79 8b58 bb3b ab1a     ........y.X.;...
    4f88:	6ca6 7c87 4ce4 5cc5 2c22 3c03 0c60 1c41     .l.|.L.\",.<`.A.
    4f98:	edae fd8f cdec ddcd ad2a bd0b 8d68 9d49     ........*...h.I.
    4fa8:	7e97 6eb6 5ed5 4ef4 3e13 2e32 1e51 0e70     .~.n.^.N.>2.Q.p.
    4fb8:	ff9f efbe dfdd cffc bf1b af3a 9f59 8f78     ..........:.Y.x.
    4fc8:	9188 81a9 b1ca a1eb d10c c12d f14e e16f     ..........-.N.o.
    4fd8:	1080 00a1 30c2 20e3 5004 4025 7046 6067     .....0. .P%@Fpg`
    4fe8:	83b9 9398 a3fb b3da c33d d31c e37f f35e     ........=.....^.
    4ff8:	02b1 1290 22f3 32d2 4235 5214 6277 7256     .....".25B.RwbVr
    5008:	b5ea a5cb 95a8 8589 f56e e54f d52c c50d     ........n.O.,...
    5018:	34e2 24c3 14a0 0481 7466 6447 5424 4405     .4.$....ftGd$T.D
    5028:	a7db b7fa 8799 97b8 e75f f77e c71d d73c     ........_.~...<.
    5038:	26d3 36f2 0691 16b0 6657 7676 4615 5634     .&.6....Wfvv.F4V
    5048:	d94c c96d f90e e92f 99c8 89e9 b98a a9ab     L.m.../.........
    5058:	5844 4865 7806 6827 18c0 08e1 3882 28a3     DXeH.x'h.....8.(
    5068:	cb7d db5c eb3f fb1e 8bf9 9bd8 abbb bb9a     }.\.?...........
    5078:	4a75 5a54 6a37 7a16 0af1 1ad0 2ab3 3a92     uJTZ7j.z.....*.:
    5088:	fd2e ed0f dd6c cd4d bdaa ad8b 9de8 8dc9     ....l.M.........
    5098:	7c26 6c07 5c64 4c45 3ca2 2c83 1ce0 0cc1     &|.ld\EL.<.,....
    50a8:	ef1f ff3e cf5d df7c af9b bfba 8fd9 9ff8     ..>.].|.........
    50b8:	6e17 7e36 4e55 5e74 2e93 3eb2 0ed1 1ef0     .n6~UNt^...>....
    50c8:	6e28 6c75 296c 0000                         (null)..

000050d0 <__clz_tab>:
    50d0:	0100 0202 0303 0303 0404 0404 0404 0404     ................
    50e0:	0505 0505 0505 0505 0505 0505 0505 0505     ................
    50f0:	0606 0606 0606 0606 0606 0606 0606 0606     ................
    5100:	0606 0606 0606 0606 0606 0606 0606 0606     ................
    5110:	0707 0707 0707 0707 0707 0707 0707 0707     ................
    5120:	0707 0707 0707 0707 0707 0707 0707 0707     ................
    5130:	0707 0707 0707 0707 0707 0707 0707 0707     ................
    5140:	0707 0707 0707 0707 0707 0707 0707 0707     ................
    5150:	0808 0808 0808 0808 0808 0808 0808 0808     ................
    5160:	0808 0808 0808 0808 0808 0808 0808 0808     ................
    5170:	0808 0808 0808 0808 0808 0808 0808 0808     ................
    5180:	0808 0808 0808 0808 0808 0808 0808 0808     ................
    5190:	0808 0808 0808 0808 0808 0808 0808 0808     ................
    51a0:	0808 0808 0808 0808 0808 0808 0808 0808     ................
    51b0:	0808 0808 0808 0808 0808 0808 0808 0808     ................
    51c0:	0808 0808 0808 0808 0808 0808 0808 0808     ................
